ARM GAS  /tmp/cclz3j42.s 			page 1


   1              		.cpu cortex-m0
   2              		.eabi_attribute 20, 1
   3              		.eabi_attribute 21, 1
   4              		.eabi_attribute 23, 3
   5              		.eabi_attribute 24, 1
   6              		.eabi_attribute 25, 1
   7              		.eabi_attribute 26, 1
   8              		.eabi_attribute 30, 1
   9              		.eabi_attribute 34, 0
  10              		.eabi_attribute 18, 4
  11              		.file	"stm32f0xx_hal_pcd.c"
  12              		.text
  13              	.Ltext0:
  14              		.cfi_sections	.debug_frame
  15              		.section	.text.HAL_PCD_MspInit,"ax",%progbits
  16              		.align	1
  17              		.weak	HAL_PCD_MspInit
  18              		.arch armv6s-m
  19              		.syntax unified
  20              		.code	16
  21              		.thumb_func
  22              		.fpu softvfp
  24              	HAL_PCD_MspInit:
  25              	.LVL0:
  26              	.LFB39:
  27              		.file 1 "Drivers/STM32F0xx_HAL_Driver/Src/stm32f0xx_hal_pcd.c"
   1:Drivers/STM32F0xx_HAL_Driver/Src/stm32f0xx_hal_pcd.c **** /**
   2:Drivers/STM32F0xx_HAL_Driver/Src/stm32f0xx_hal_pcd.c ****   ******************************************************************************
   3:Drivers/STM32F0xx_HAL_Driver/Src/stm32f0xx_hal_pcd.c ****   * @file    stm32f0xx_hal_pcd.c
   4:Drivers/STM32F0xx_HAL_Driver/Src/stm32f0xx_hal_pcd.c ****   * @author  MCD Application Team
   5:Drivers/STM32F0xx_HAL_Driver/Src/stm32f0xx_hal_pcd.c ****   * @brief   PCD HAL module driver.
   6:Drivers/STM32F0xx_HAL_Driver/Src/stm32f0xx_hal_pcd.c ****   *          This file provides firmware functions to manage the following 
   7:Drivers/STM32F0xx_HAL_Driver/Src/stm32f0xx_hal_pcd.c ****   *          functionalities of the USB Peripheral Controller:
   8:Drivers/STM32F0xx_HAL_Driver/Src/stm32f0xx_hal_pcd.c ****   *           + Initialization and de-initialization functions
   9:Drivers/STM32F0xx_HAL_Driver/Src/stm32f0xx_hal_pcd.c ****   *           + IO operation functions
  10:Drivers/STM32F0xx_HAL_Driver/Src/stm32f0xx_hal_pcd.c ****   *           + Peripheral Control functions 
  11:Drivers/STM32F0xx_HAL_Driver/Src/stm32f0xx_hal_pcd.c ****   *           + Peripheral State functions
  12:Drivers/STM32F0xx_HAL_Driver/Src/stm32f0xx_hal_pcd.c ****   *         
  13:Drivers/STM32F0xx_HAL_Driver/Src/stm32f0xx_hal_pcd.c ****   @verbatim
  14:Drivers/STM32F0xx_HAL_Driver/Src/stm32f0xx_hal_pcd.c ****   ==============================================================================
  15:Drivers/STM32F0xx_HAL_Driver/Src/stm32f0xx_hal_pcd.c ****                     ##### How to use this driver #####
  16:Drivers/STM32F0xx_HAL_Driver/Src/stm32f0xx_hal_pcd.c ****   ==============================================================================
  17:Drivers/STM32F0xx_HAL_Driver/Src/stm32f0xx_hal_pcd.c ****     [..]
  18:Drivers/STM32F0xx_HAL_Driver/Src/stm32f0xx_hal_pcd.c ****       The PCD HAL driver can be used as follows:
  19:Drivers/STM32F0xx_HAL_Driver/Src/stm32f0xx_hal_pcd.c **** 
  20:Drivers/STM32F0xx_HAL_Driver/Src/stm32f0xx_hal_pcd.c ****      (#) Declare a PCD_HandleTypeDef handle structure, for example:
  21:Drivers/STM32F0xx_HAL_Driver/Src/stm32f0xx_hal_pcd.c ****          PCD_HandleTypeDef  hpcd;
  22:Drivers/STM32F0xx_HAL_Driver/Src/stm32f0xx_hal_pcd.c ****         
  23:Drivers/STM32F0xx_HAL_Driver/Src/stm32f0xx_hal_pcd.c ****      (#) Fill parameters of Init structure in HCD handle
  24:Drivers/STM32F0xx_HAL_Driver/Src/stm32f0xx_hal_pcd.c ****   
  25:Drivers/STM32F0xx_HAL_Driver/Src/stm32f0xx_hal_pcd.c ****      (#) Call HAL_PCD_Init() API to initialize the HCD peripheral (Core, Device core, ...) 
  26:Drivers/STM32F0xx_HAL_Driver/Src/stm32f0xx_hal_pcd.c **** 
  27:Drivers/STM32F0xx_HAL_Driver/Src/stm32f0xx_hal_pcd.c ****      (#) Initialize the PCD low level resources through the HAL_PCD_MspInit() API:
  28:Drivers/STM32F0xx_HAL_Driver/Src/stm32f0xx_hal_pcd.c ****          (##) Enable the PCD/USB Low Level interface clock using 
  29:Drivers/STM32F0xx_HAL_Driver/Src/stm32f0xx_hal_pcd.c ****               (+++) __HAL_RCC_USB_CLK_ENABLE);
  30:Drivers/STM32F0xx_HAL_Driver/Src/stm32f0xx_hal_pcd.c ****            
  31:Drivers/STM32F0xx_HAL_Driver/Src/stm32f0xx_hal_pcd.c ****          (##) Initialize the related GPIO clocks
ARM GAS  /tmp/cclz3j42.s 			page 2


  32:Drivers/STM32F0xx_HAL_Driver/Src/stm32f0xx_hal_pcd.c ****          (##) Configure PCD pin-out
  33:Drivers/STM32F0xx_HAL_Driver/Src/stm32f0xx_hal_pcd.c ****          (##) Configure PCD NVIC interrupt
  34:Drivers/STM32F0xx_HAL_Driver/Src/stm32f0xx_hal_pcd.c ****     
  35:Drivers/STM32F0xx_HAL_Driver/Src/stm32f0xx_hal_pcd.c ****      (#)Associate the Upper USB device stack to the HAL PCD Driver:
  36:Drivers/STM32F0xx_HAL_Driver/Src/stm32f0xx_hal_pcd.c ****          (##) hpcd.pData = pdev;
  37:Drivers/STM32F0xx_HAL_Driver/Src/stm32f0xx_hal_pcd.c **** 
  38:Drivers/STM32F0xx_HAL_Driver/Src/stm32f0xx_hal_pcd.c ****      (#)Enable HCD transmission and reception:
  39:Drivers/STM32F0xx_HAL_Driver/Src/stm32f0xx_hal_pcd.c ****          (##) HAL_PCD_Start();
  40:Drivers/STM32F0xx_HAL_Driver/Src/stm32f0xx_hal_pcd.c **** 
  41:Drivers/STM32F0xx_HAL_Driver/Src/stm32f0xx_hal_pcd.c ****   @endverbatim
  42:Drivers/STM32F0xx_HAL_Driver/Src/stm32f0xx_hal_pcd.c ****   ******************************************************************************
  43:Drivers/STM32F0xx_HAL_Driver/Src/stm32f0xx_hal_pcd.c ****   * @attention
  44:Drivers/STM32F0xx_HAL_Driver/Src/stm32f0xx_hal_pcd.c ****   *
  45:Drivers/STM32F0xx_HAL_Driver/Src/stm32f0xx_hal_pcd.c ****   * <h2><center>&copy; COPYRIGHT(c) 2016 STMicroelectronics</center></h2>
  46:Drivers/STM32F0xx_HAL_Driver/Src/stm32f0xx_hal_pcd.c ****   *
  47:Drivers/STM32F0xx_HAL_Driver/Src/stm32f0xx_hal_pcd.c ****   * Redistribution and use in source and binary forms, with or without modification,
  48:Drivers/STM32F0xx_HAL_Driver/Src/stm32f0xx_hal_pcd.c ****   * are permitted provided that the following conditions are met:
  49:Drivers/STM32F0xx_HAL_Driver/Src/stm32f0xx_hal_pcd.c ****   *   1. Redistributions of source code must retain the above copyright notice,
  50:Drivers/STM32F0xx_HAL_Driver/Src/stm32f0xx_hal_pcd.c ****   *      this list of conditions and the following disclaimer.
  51:Drivers/STM32F0xx_HAL_Driver/Src/stm32f0xx_hal_pcd.c ****   *   2. Redistributions in binary form must reproduce the above copyright notice,
  52:Drivers/STM32F0xx_HAL_Driver/Src/stm32f0xx_hal_pcd.c ****   *      this list of conditions and the following disclaimer in the documentation
  53:Drivers/STM32F0xx_HAL_Driver/Src/stm32f0xx_hal_pcd.c ****   *      and/or other materials provided with the distribution.
  54:Drivers/STM32F0xx_HAL_Driver/Src/stm32f0xx_hal_pcd.c ****   *   3. Neither the name of STMicroelectronics nor the names of its contributors
  55:Drivers/STM32F0xx_HAL_Driver/Src/stm32f0xx_hal_pcd.c ****   *      may be used to endorse or promote products derived from this software
  56:Drivers/STM32F0xx_HAL_Driver/Src/stm32f0xx_hal_pcd.c ****   *      without specific prior written permission.
  57:Drivers/STM32F0xx_HAL_Driver/Src/stm32f0xx_hal_pcd.c ****   *
  58:Drivers/STM32F0xx_HAL_Driver/Src/stm32f0xx_hal_pcd.c ****   * THIS SOFTWARE IS PROVIDED BY THE COPYRIGHT HOLDERS AND CONTRIBUTORS "AS IS"
  59:Drivers/STM32F0xx_HAL_Driver/Src/stm32f0xx_hal_pcd.c ****   * AND ANY EXPRESS OR IMPLIED WARRANTIES, INCLUDING, BUT NOT LIMITED TO, THE
  60:Drivers/STM32F0xx_HAL_Driver/Src/stm32f0xx_hal_pcd.c ****   * IMPLIED WARRANTIES OF MERCHANTABILITY AND FITNESS FOR A PARTICULAR PURPOSE ARE
  61:Drivers/STM32F0xx_HAL_Driver/Src/stm32f0xx_hal_pcd.c ****   * DISCLAIMED. IN NO EVENT SHALL THE COPYRIGHT HOLDER OR CONTRIBUTORS BE LIABLE
  62:Drivers/STM32F0xx_HAL_Driver/Src/stm32f0xx_hal_pcd.c ****   * FOR ANY DIRECT, INDIRECT, INCIDENTAL, SPECIAL, EXEMPLARY, OR CONSEQUENTIAL
  63:Drivers/STM32F0xx_HAL_Driver/Src/stm32f0xx_hal_pcd.c ****   * DAMAGES (INCLUDING, BUT NOT LIMITED TO, PROCUREMENT OF SUBSTITUTE GOODS OR
  64:Drivers/STM32F0xx_HAL_Driver/Src/stm32f0xx_hal_pcd.c ****   * SERVICES; LOSS OF USE, DATA, OR PROFITS; OR BUSINESS INTERRUPTION) HOWEVER
  65:Drivers/STM32F0xx_HAL_Driver/Src/stm32f0xx_hal_pcd.c ****   * CAUSED AND ON ANY THEORY OF LIABILITY, WHETHER IN CONTRACT, STRICT LIABILITY,
  66:Drivers/STM32F0xx_HAL_Driver/Src/stm32f0xx_hal_pcd.c ****   * OR TORT (INCLUDING NEGLIGENCE OR OTHERWISE) ARISING IN ANY WAY OUT OF THE USE
  67:Drivers/STM32F0xx_HAL_Driver/Src/stm32f0xx_hal_pcd.c ****   * OF THIS SOFTWARE, EVEN IF ADVISED OF THE POSSIBILITY OF SUCH DAMAGE.
  68:Drivers/STM32F0xx_HAL_Driver/Src/stm32f0xx_hal_pcd.c ****   *
  69:Drivers/STM32F0xx_HAL_Driver/Src/stm32f0xx_hal_pcd.c ****   ******************************************************************************
  70:Drivers/STM32F0xx_HAL_Driver/Src/stm32f0xx_hal_pcd.c ****   */
  71:Drivers/STM32F0xx_HAL_Driver/Src/stm32f0xx_hal_pcd.c **** 
  72:Drivers/STM32F0xx_HAL_Driver/Src/stm32f0xx_hal_pcd.c **** /* Includes ------------------------------------------------------------------*/
  73:Drivers/STM32F0xx_HAL_Driver/Src/stm32f0xx_hal_pcd.c **** #include "stm32f0xx_hal.h"
  74:Drivers/STM32F0xx_HAL_Driver/Src/stm32f0xx_hal_pcd.c **** 
  75:Drivers/STM32F0xx_HAL_Driver/Src/stm32f0xx_hal_pcd.c **** /** @addtogroup STM32F0xx_HAL_Driver
  76:Drivers/STM32F0xx_HAL_Driver/Src/stm32f0xx_hal_pcd.c ****   * @{
  77:Drivers/STM32F0xx_HAL_Driver/Src/stm32f0xx_hal_pcd.c ****   */
  78:Drivers/STM32F0xx_HAL_Driver/Src/stm32f0xx_hal_pcd.c **** 
  79:Drivers/STM32F0xx_HAL_Driver/Src/stm32f0xx_hal_pcd.c **** #ifdef HAL_PCD_MODULE_ENABLED
  80:Drivers/STM32F0xx_HAL_Driver/Src/stm32f0xx_hal_pcd.c **** 
  81:Drivers/STM32F0xx_HAL_Driver/Src/stm32f0xx_hal_pcd.c **** #if defined(STM32F042x6) || defined(STM32F048xx) || defined(STM32F072xB) || defined(STM32F078xx) ||
  82:Drivers/STM32F0xx_HAL_Driver/Src/stm32f0xx_hal_pcd.c **** 
  83:Drivers/STM32F0xx_HAL_Driver/Src/stm32f0xx_hal_pcd.c **** /** @defgroup PCD PCD
  84:Drivers/STM32F0xx_HAL_Driver/Src/stm32f0xx_hal_pcd.c ****   * @brief PCD HAL module driver
  85:Drivers/STM32F0xx_HAL_Driver/Src/stm32f0xx_hal_pcd.c ****   * @{
  86:Drivers/STM32F0xx_HAL_Driver/Src/stm32f0xx_hal_pcd.c ****   */
  87:Drivers/STM32F0xx_HAL_Driver/Src/stm32f0xx_hal_pcd.c **** 
  88:Drivers/STM32F0xx_HAL_Driver/Src/stm32f0xx_hal_pcd.c **** /* Private typedef -----------------------------------------------------------*/
ARM GAS  /tmp/cclz3j42.s 			page 3


  89:Drivers/STM32F0xx_HAL_Driver/Src/stm32f0xx_hal_pcd.c **** /* Private define ------------------------------------------------------------*/
  90:Drivers/STM32F0xx_HAL_Driver/Src/stm32f0xx_hal_pcd.c **** 
  91:Drivers/STM32F0xx_HAL_Driver/Src/stm32f0xx_hal_pcd.c **** /** @defgroup PCD_Private_Define PCD Private Define
  92:Drivers/STM32F0xx_HAL_Driver/Src/stm32f0xx_hal_pcd.c ****   * @{
  93:Drivers/STM32F0xx_HAL_Driver/Src/stm32f0xx_hal_pcd.c ****   */
  94:Drivers/STM32F0xx_HAL_Driver/Src/stm32f0xx_hal_pcd.c **** #define BTABLE_ADDRESS                  (0x000)  
  95:Drivers/STM32F0xx_HAL_Driver/Src/stm32f0xx_hal_pcd.c **** /**
  96:Drivers/STM32F0xx_HAL_Driver/Src/stm32f0xx_hal_pcd.c ****   * @}
  97:Drivers/STM32F0xx_HAL_Driver/Src/stm32f0xx_hal_pcd.c ****   */ 
  98:Drivers/STM32F0xx_HAL_Driver/Src/stm32f0xx_hal_pcd.c ****   
  99:Drivers/STM32F0xx_HAL_Driver/Src/stm32f0xx_hal_pcd.c **** /* Private macro -------------------------------------------------------------*/
 100:Drivers/STM32F0xx_HAL_Driver/Src/stm32f0xx_hal_pcd.c **** /* Private variables ---------------------------------------------------------*/
 101:Drivers/STM32F0xx_HAL_Driver/Src/stm32f0xx_hal_pcd.c **** /* Private function prototypes -----------------------------------------------*/
 102:Drivers/STM32F0xx_HAL_Driver/Src/stm32f0xx_hal_pcd.c **** /** @defgroup PCD_Private_Functions PCD Private Functions
 103:Drivers/STM32F0xx_HAL_Driver/Src/stm32f0xx_hal_pcd.c ****   * @{
 104:Drivers/STM32F0xx_HAL_Driver/Src/stm32f0xx_hal_pcd.c ****   */
 105:Drivers/STM32F0xx_HAL_Driver/Src/stm32f0xx_hal_pcd.c **** static HAL_StatusTypeDef PCD_EP_ISR_Handler(PCD_HandleTypeDef *hpcd);
 106:Drivers/STM32F0xx_HAL_Driver/Src/stm32f0xx_hal_pcd.c **** void PCD_WritePMA(USB_TypeDef  *USBx, uint8_t *pbUsrBuf, uint16_t wPMABufAddr, uint16_t wNBytes);
 107:Drivers/STM32F0xx_HAL_Driver/Src/stm32f0xx_hal_pcd.c **** void PCD_ReadPMA(USB_TypeDef  *USBx, uint8_t *pbUsrBuf, uint16_t wPMABufAddr, uint16_t wNBytes);
 108:Drivers/STM32F0xx_HAL_Driver/Src/stm32f0xx_hal_pcd.c **** /**
 109:Drivers/STM32F0xx_HAL_Driver/Src/stm32f0xx_hal_pcd.c ****   * @}
 110:Drivers/STM32F0xx_HAL_Driver/Src/stm32f0xx_hal_pcd.c ****   */ 
 111:Drivers/STM32F0xx_HAL_Driver/Src/stm32f0xx_hal_pcd.c **** 
 112:Drivers/STM32F0xx_HAL_Driver/Src/stm32f0xx_hal_pcd.c **** /* Exported functions --------------------------------------------------------*/
 113:Drivers/STM32F0xx_HAL_Driver/Src/stm32f0xx_hal_pcd.c **** /** @defgroup PCD_Exported_Functions PCD Exported Functions
 114:Drivers/STM32F0xx_HAL_Driver/Src/stm32f0xx_hal_pcd.c ****   * @{
 115:Drivers/STM32F0xx_HAL_Driver/Src/stm32f0xx_hal_pcd.c ****   */
 116:Drivers/STM32F0xx_HAL_Driver/Src/stm32f0xx_hal_pcd.c **** 
 117:Drivers/STM32F0xx_HAL_Driver/Src/stm32f0xx_hal_pcd.c **** /** @defgroup PCD_Exported_Functions_Group1 Initialization and de-initialization functions 
 118:Drivers/STM32F0xx_HAL_Driver/Src/stm32f0xx_hal_pcd.c ****  *  @brief    Initialization and Configuration functions 
 119:Drivers/STM32F0xx_HAL_Driver/Src/stm32f0xx_hal_pcd.c ****  *
 120:Drivers/STM32F0xx_HAL_Driver/Src/stm32f0xx_hal_pcd.c **** @verbatim
 121:Drivers/STM32F0xx_HAL_Driver/Src/stm32f0xx_hal_pcd.c ****  ===============================================================================
 122:Drivers/STM32F0xx_HAL_Driver/Src/stm32f0xx_hal_pcd.c ****             ##### Initialization and de-initialization functions #####
 123:Drivers/STM32F0xx_HAL_Driver/Src/stm32f0xx_hal_pcd.c ****  ===============================================================================
 124:Drivers/STM32F0xx_HAL_Driver/Src/stm32f0xx_hal_pcd.c ****     [..]  This section provides functions allowing to:
 125:Drivers/STM32F0xx_HAL_Driver/Src/stm32f0xx_hal_pcd.c ****  
 126:Drivers/STM32F0xx_HAL_Driver/Src/stm32f0xx_hal_pcd.c **** @endverbatim
 127:Drivers/STM32F0xx_HAL_Driver/Src/stm32f0xx_hal_pcd.c ****   * @{
 128:Drivers/STM32F0xx_HAL_Driver/Src/stm32f0xx_hal_pcd.c ****   */
 129:Drivers/STM32F0xx_HAL_Driver/Src/stm32f0xx_hal_pcd.c **** 
 130:Drivers/STM32F0xx_HAL_Driver/Src/stm32f0xx_hal_pcd.c **** /**
 131:Drivers/STM32F0xx_HAL_Driver/Src/stm32f0xx_hal_pcd.c ****   * @brief  Initializes the PCD according to the specified
 132:Drivers/STM32F0xx_HAL_Driver/Src/stm32f0xx_hal_pcd.c ****   *         parameters in the PCD_InitTypeDef and create the associated handle.
 133:Drivers/STM32F0xx_HAL_Driver/Src/stm32f0xx_hal_pcd.c ****   * @param  hpcd PCD handle
 134:Drivers/STM32F0xx_HAL_Driver/Src/stm32f0xx_hal_pcd.c ****   * @retval HAL status
 135:Drivers/STM32F0xx_HAL_Driver/Src/stm32f0xx_hal_pcd.c ****   */
 136:Drivers/STM32F0xx_HAL_Driver/Src/stm32f0xx_hal_pcd.c **** HAL_StatusTypeDef HAL_PCD_Init(PCD_HandleTypeDef *hpcd)
 137:Drivers/STM32F0xx_HAL_Driver/Src/stm32f0xx_hal_pcd.c **** { 
 138:Drivers/STM32F0xx_HAL_Driver/Src/stm32f0xx_hal_pcd.c ****   uint32_t i = 0U;
 139:Drivers/STM32F0xx_HAL_Driver/Src/stm32f0xx_hal_pcd.c **** 
 140:Drivers/STM32F0xx_HAL_Driver/Src/stm32f0xx_hal_pcd.c ****   uint32_t wInterrupt_Mask = 0U;
 141:Drivers/STM32F0xx_HAL_Driver/Src/stm32f0xx_hal_pcd.c ****   
 142:Drivers/STM32F0xx_HAL_Driver/Src/stm32f0xx_hal_pcd.c ****   /* Check the PCD handle allocation */
 143:Drivers/STM32F0xx_HAL_Driver/Src/stm32f0xx_hal_pcd.c ****   if(hpcd == NULL)
 144:Drivers/STM32F0xx_HAL_Driver/Src/stm32f0xx_hal_pcd.c ****   {
 145:Drivers/STM32F0xx_HAL_Driver/Src/stm32f0xx_hal_pcd.c ****     return HAL_ERROR;
ARM GAS  /tmp/cclz3j42.s 			page 4


 146:Drivers/STM32F0xx_HAL_Driver/Src/stm32f0xx_hal_pcd.c ****   }
 147:Drivers/STM32F0xx_HAL_Driver/Src/stm32f0xx_hal_pcd.c ****   
 148:Drivers/STM32F0xx_HAL_Driver/Src/stm32f0xx_hal_pcd.c ****   /* Check the parameters */
 149:Drivers/STM32F0xx_HAL_Driver/Src/stm32f0xx_hal_pcd.c ****   assert_param(IS_PCD_ALL_INSTANCE(hpcd->Instance));
 150:Drivers/STM32F0xx_HAL_Driver/Src/stm32f0xx_hal_pcd.c **** 
 151:Drivers/STM32F0xx_HAL_Driver/Src/stm32f0xx_hal_pcd.c ****   if(hpcd->State == HAL_PCD_STATE_RESET)
 152:Drivers/STM32F0xx_HAL_Driver/Src/stm32f0xx_hal_pcd.c ****   {  
 153:Drivers/STM32F0xx_HAL_Driver/Src/stm32f0xx_hal_pcd.c ****     /* Allocate lock resource and initialize it */
 154:Drivers/STM32F0xx_HAL_Driver/Src/stm32f0xx_hal_pcd.c ****     hpcd->Lock = HAL_UNLOCKED;
 155:Drivers/STM32F0xx_HAL_Driver/Src/stm32f0xx_hal_pcd.c ****   
 156:Drivers/STM32F0xx_HAL_Driver/Src/stm32f0xx_hal_pcd.c ****     /* Init the low level hardware : GPIO, CLOCK, NVIC... */
 157:Drivers/STM32F0xx_HAL_Driver/Src/stm32f0xx_hal_pcd.c ****     HAL_PCD_MspInit(hpcd);
 158:Drivers/STM32F0xx_HAL_Driver/Src/stm32f0xx_hal_pcd.c ****   }
 159:Drivers/STM32F0xx_HAL_Driver/Src/stm32f0xx_hal_pcd.c **** 
 160:Drivers/STM32F0xx_HAL_Driver/Src/stm32f0xx_hal_pcd.c ****   hpcd->State = HAL_PCD_STATE_BUSY;
 161:Drivers/STM32F0xx_HAL_Driver/Src/stm32f0xx_hal_pcd.c ****  
 162:Drivers/STM32F0xx_HAL_Driver/Src/stm32f0xx_hal_pcd.c ****  /* Init endpoints structures */
 163:Drivers/STM32F0xx_HAL_Driver/Src/stm32f0xx_hal_pcd.c ****  for (i = 0U; i < hpcd->Init.dev_endpoints ; i++)
 164:Drivers/STM32F0xx_HAL_Driver/Src/stm32f0xx_hal_pcd.c ****  {
 165:Drivers/STM32F0xx_HAL_Driver/Src/stm32f0xx_hal_pcd.c ****    /* Init ep structure */
 166:Drivers/STM32F0xx_HAL_Driver/Src/stm32f0xx_hal_pcd.c ****    hpcd->IN_ep[i].is_in = 1U;
 167:Drivers/STM32F0xx_HAL_Driver/Src/stm32f0xx_hal_pcd.c ****    hpcd->IN_ep[i].num = i;
 168:Drivers/STM32F0xx_HAL_Driver/Src/stm32f0xx_hal_pcd.c ****    /* Control until ep is actvated */
 169:Drivers/STM32F0xx_HAL_Driver/Src/stm32f0xx_hal_pcd.c ****    hpcd->IN_ep[i].type = PCD_EP_TYPE_CTRL;
 170:Drivers/STM32F0xx_HAL_Driver/Src/stm32f0xx_hal_pcd.c ****    hpcd->IN_ep[i].maxpacket =  0U;
 171:Drivers/STM32F0xx_HAL_Driver/Src/stm32f0xx_hal_pcd.c ****    hpcd->IN_ep[i].xfer_buff = 0U;
 172:Drivers/STM32F0xx_HAL_Driver/Src/stm32f0xx_hal_pcd.c ****    hpcd->IN_ep[i].xfer_len = 0U;
 173:Drivers/STM32F0xx_HAL_Driver/Src/stm32f0xx_hal_pcd.c ****  }
 174:Drivers/STM32F0xx_HAL_Driver/Src/stm32f0xx_hal_pcd.c ****  
 175:Drivers/STM32F0xx_HAL_Driver/Src/stm32f0xx_hal_pcd.c ****  for (i = 0U; i < hpcd->Init.dev_endpoints ; i++)
 176:Drivers/STM32F0xx_HAL_Driver/Src/stm32f0xx_hal_pcd.c ****  {
 177:Drivers/STM32F0xx_HAL_Driver/Src/stm32f0xx_hal_pcd.c ****    hpcd->OUT_ep[i].is_in = 0U;
 178:Drivers/STM32F0xx_HAL_Driver/Src/stm32f0xx_hal_pcd.c ****    hpcd->OUT_ep[i].num = i;
 179:Drivers/STM32F0xx_HAL_Driver/Src/stm32f0xx_hal_pcd.c ****    /* Control until ep is activated */
 180:Drivers/STM32F0xx_HAL_Driver/Src/stm32f0xx_hal_pcd.c ****    hpcd->OUT_ep[i].type = PCD_EP_TYPE_CTRL;
 181:Drivers/STM32F0xx_HAL_Driver/Src/stm32f0xx_hal_pcd.c ****    hpcd->OUT_ep[i].maxpacket = 0U;
 182:Drivers/STM32F0xx_HAL_Driver/Src/stm32f0xx_hal_pcd.c ****    hpcd->OUT_ep[i].xfer_buff = 0U;
 183:Drivers/STM32F0xx_HAL_Driver/Src/stm32f0xx_hal_pcd.c ****    hpcd->OUT_ep[i].xfer_len = 0U;
 184:Drivers/STM32F0xx_HAL_Driver/Src/stm32f0xx_hal_pcd.c ****  }
 185:Drivers/STM32F0xx_HAL_Driver/Src/stm32f0xx_hal_pcd.c ****   
 186:Drivers/STM32F0xx_HAL_Driver/Src/stm32f0xx_hal_pcd.c ****  /* Init Device */
 187:Drivers/STM32F0xx_HAL_Driver/Src/stm32f0xx_hal_pcd.c ****  /*CNTR_FRES = 1*/
 188:Drivers/STM32F0xx_HAL_Driver/Src/stm32f0xx_hal_pcd.c ****  hpcd->Instance->CNTR = USB_CNTR_FRES;
 189:Drivers/STM32F0xx_HAL_Driver/Src/stm32f0xx_hal_pcd.c ****  
 190:Drivers/STM32F0xx_HAL_Driver/Src/stm32f0xx_hal_pcd.c ****  /*CNTR_FRES = 0*/
 191:Drivers/STM32F0xx_HAL_Driver/Src/stm32f0xx_hal_pcd.c ****  hpcd->Instance->CNTR = 0;
 192:Drivers/STM32F0xx_HAL_Driver/Src/stm32f0xx_hal_pcd.c ****  
 193:Drivers/STM32F0xx_HAL_Driver/Src/stm32f0xx_hal_pcd.c ****  /*Clear pending interrupts*/
 194:Drivers/STM32F0xx_HAL_Driver/Src/stm32f0xx_hal_pcd.c ****  hpcd->Instance->ISTR = 0;
 195:Drivers/STM32F0xx_HAL_Driver/Src/stm32f0xx_hal_pcd.c ****  
 196:Drivers/STM32F0xx_HAL_Driver/Src/stm32f0xx_hal_pcd.c ****   /*Set Btable Adress*/
 197:Drivers/STM32F0xx_HAL_Driver/Src/stm32f0xx_hal_pcd.c ****  hpcd->Instance->BTABLE = BTABLE_ADDRESS;
 198:Drivers/STM32F0xx_HAL_Driver/Src/stm32f0xx_hal_pcd.c ****   
 199:Drivers/STM32F0xx_HAL_Driver/Src/stm32f0xx_hal_pcd.c ****   /*set wInterrupt_Mask global variable*/
 200:Drivers/STM32F0xx_HAL_Driver/Src/stm32f0xx_hal_pcd.c ****  wInterrupt_Mask = USB_CNTR_CTRM  | USB_CNTR_WKUPM | USB_CNTR_SUSPM | USB_CNTR_ERRM \
 201:Drivers/STM32F0xx_HAL_Driver/Src/stm32f0xx_hal_pcd.c ****    | USB_CNTR_SOFM | USB_CNTR_ESOFM | USB_CNTR_RESETM;
 202:Drivers/STM32F0xx_HAL_Driver/Src/stm32f0xx_hal_pcd.c ****   
ARM GAS  /tmp/cclz3j42.s 			page 5


 203:Drivers/STM32F0xx_HAL_Driver/Src/stm32f0xx_hal_pcd.c ****   /*Set interrupt mask*/
 204:Drivers/STM32F0xx_HAL_Driver/Src/stm32f0xx_hal_pcd.c ****   hpcd->Instance->CNTR = wInterrupt_Mask;
 205:Drivers/STM32F0xx_HAL_Driver/Src/stm32f0xx_hal_pcd.c ****   
 206:Drivers/STM32F0xx_HAL_Driver/Src/stm32f0xx_hal_pcd.c ****   hpcd->USB_Address = 0U;
 207:Drivers/STM32F0xx_HAL_Driver/Src/stm32f0xx_hal_pcd.c ****   hpcd->State= HAL_PCD_STATE_READY;
 208:Drivers/STM32F0xx_HAL_Driver/Src/stm32f0xx_hal_pcd.c **** 
 209:Drivers/STM32F0xx_HAL_Driver/Src/stm32f0xx_hal_pcd.c ****  return HAL_OK;
 210:Drivers/STM32F0xx_HAL_Driver/Src/stm32f0xx_hal_pcd.c **** }
 211:Drivers/STM32F0xx_HAL_Driver/Src/stm32f0xx_hal_pcd.c **** 
 212:Drivers/STM32F0xx_HAL_Driver/Src/stm32f0xx_hal_pcd.c **** /**
 213:Drivers/STM32F0xx_HAL_Driver/Src/stm32f0xx_hal_pcd.c ****   * @brief  DeInitializes the PCD peripheral 
 214:Drivers/STM32F0xx_HAL_Driver/Src/stm32f0xx_hal_pcd.c ****   * @param  hpcd PCD handle
 215:Drivers/STM32F0xx_HAL_Driver/Src/stm32f0xx_hal_pcd.c ****   * @retval HAL status
 216:Drivers/STM32F0xx_HAL_Driver/Src/stm32f0xx_hal_pcd.c ****   */
 217:Drivers/STM32F0xx_HAL_Driver/Src/stm32f0xx_hal_pcd.c **** HAL_StatusTypeDef HAL_PCD_DeInit(PCD_HandleTypeDef *hpcd)
 218:Drivers/STM32F0xx_HAL_Driver/Src/stm32f0xx_hal_pcd.c **** {
 219:Drivers/STM32F0xx_HAL_Driver/Src/stm32f0xx_hal_pcd.c ****   /* Check the PCD handle allocation */
 220:Drivers/STM32F0xx_HAL_Driver/Src/stm32f0xx_hal_pcd.c ****   if(hpcd == NULL)
 221:Drivers/STM32F0xx_HAL_Driver/Src/stm32f0xx_hal_pcd.c ****   {
 222:Drivers/STM32F0xx_HAL_Driver/Src/stm32f0xx_hal_pcd.c ****     return HAL_ERROR;
 223:Drivers/STM32F0xx_HAL_Driver/Src/stm32f0xx_hal_pcd.c ****   }
 224:Drivers/STM32F0xx_HAL_Driver/Src/stm32f0xx_hal_pcd.c **** 
 225:Drivers/STM32F0xx_HAL_Driver/Src/stm32f0xx_hal_pcd.c ****   hpcd->State = HAL_PCD_STATE_BUSY;
 226:Drivers/STM32F0xx_HAL_Driver/Src/stm32f0xx_hal_pcd.c ****   
 227:Drivers/STM32F0xx_HAL_Driver/Src/stm32f0xx_hal_pcd.c ****   /* Stop Device */
 228:Drivers/STM32F0xx_HAL_Driver/Src/stm32f0xx_hal_pcd.c ****   HAL_PCD_Stop(hpcd);
 229:Drivers/STM32F0xx_HAL_Driver/Src/stm32f0xx_hal_pcd.c ****     
 230:Drivers/STM32F0xx_HAL_Driver/Src/stm32f0xx_hal_pcd.c ****   /* DeInit the low level hardware */
 231:Drivers/STM32F0xx_HAL_Driver/Src/stm32f0xx_hal_pcd.c ****   HAL_PCD_MspDeInit(hpcd);
 232:Drivers/STM32F0xx_HAL_Driver/Src/stm32f0xx_hal_pcd.c ****   
 233:Drivers/STM32F0xx_HAL_Driver/Src/stm32f0xx_hal_pcd.c ****   hpcd->State = HAL_PCD_STATE_RESET; 
 234:Drivers/STM32F0xx_HAL_Driver/Src/stm32f0xx_hal_pcd.c ****   
 235:Drivers/STM32F0xx_HAL_Driver/Src/stm32f0xx_hal_pcd.c ****   return HAL_OK;
 236:Drivers/STM32F0xx_HAL_Driver/Src/stm32f0xx_hal_pcd.c **** }
 237:Drivers/STM32F0xx_HAL_Driver/Src/stm32f0xx_hal_pcd.c **** 
 238:Drivers/STM32F0xx_HAL_Driver/Src/stm32f0xx_hal_pcd.c **** /**
 239:Drivers/STM32F0xx_HAL_Driver/Src/stm32f0xx_hal_pcd.c ****   * @brief  Initializes the PCD MSP.
 240:Drivers/STM32F0xx_HAL_Driver/Src/stm32f0xx_hal_pcd.c ****   * @param  hpcd PCD handle
 241:Drivers/STM32F0xx_HAL_Driver/Src/stm32f0xx_hal_pcd.c ****   * @retval None
 242:Drivers/STM32F0xx_HAL_Driver/Src/stm32f0xx_hal_pcd.c ****   */
 243:Drivers/STM32F0xx_HAL_Driver/Src/stm32f0xx_hal_pcd.c **** __weak void HAL_PCD_MspInit(PCD_HandleTypeDef *hpcd)
 244:Drivers/STM32F0xx_HAL_Driver/Src/stm32f0xx_hal_pcd.c **** {
  28              		.loc 1 244 1 view -0
  29              		.cfi_startproc
  30              		@ args = 0, pretend = 0, frame = 0
  31              		@ frame_needed = 0, uses_anonymous_args = 0
  32              		@ link register save eliminated.
 245:Drivers/STM32F0xx_HAL_Driver/Src/stm32f0xx_hal_pcd.c ****   /* Prevent unused argument(s) compilation warning */
 246:Drivers/STM32F0xx_HAL_Driver/Src/stm32f0xx_hal_pcd.c ****   UNUSED(hpcd);
  33              		.loc 1 246 3 view .LVU1
 247:Drivers/STM32F0xx_HAL_Driver/Src/stm32f0xx_hal_pcd.c **** 
 248:Drivers/STM32F0xx_HAL_Driver/Src/stm32f0xx_hal_pcd.c ****   /* NOTE : This function Should not be modified, when the callback is needed,
 249:Drivers/STM32F0xx_HAL_Driver/Src/stm32f0xx_hal_pcd.c ****             the HAL_PCD_MspInit could be implemented in the user file
 250:Drivers/STM32F0xx_HAL_Driver/Src/stm32f0xx_hal_pcd.c ****    */
 251:Drivers/STM32F0xx_HAL_Driver/Src/stm32f0xx_hal_pcd.c **** }
  34              		.loc 1 251 1 is_stmt 0 view .LVU2
  35              		@ sp needed
ARM GAS  /tmp/cclz3j42.s 			page 6


  36 0000 7047     		bx	lr
  37              		.cfi_endproc
  38              	.LFE39:
  40              		.section	.text.HAL_PCD_Init,"ax",%progbits
  41              		.align	1
  42              		.global	HAL_PCD_Init
  43              		.syntax unified
  44              		.code	16
  45              		.thumb_func
  46              		.fpu softvfp
  48              	HAL_PCD_Init:
  49              	.LVL1:
  50              	.LFB37:
 137:Drivers/STM32F0xx_HAL_Driver/Src/stm32f0xx_hal_pcd.c ****   uint32_t i = 0U;
  51              		.loc 1 137 1 is_stmt 1 view -0
  52              		.cfi_startproc
  53              		@ args = 0, pretend = 0, frame = 0
  54              		@ frame_needed = 0, uses_anonymous_args = 0
 137:Drivers/STM32F0xx_HAL_Driver/Src/stm32f0xx_hal_pcd.c ****   uint32_t i = 0U;
  55              		.loc 1 137 1 is_stmt 0 view .LVU4
  56 0000 70B5     		push	{r4, r5, r6, lr}
  57              	.LCFI0:
  58              		.cfi_def_cfa_offset 16
  59              		.cfi_offset 4, -16
  60              		.cfi_offset 5, -12
  61              		.cfi_offset 6, -8
  62              		.cfi_offset 14, -4
  63 0002 041E     		subs	r4, r0, #0
 138:Drivers/STM32F0xx_HAL_Driver/Src/stm32f0xx_hal_pcd.c **** 
  64              		.loc 1 138 3 is_stmt 1 view .LVU5
  65              	.LVL2:
 140:Drivers/STM32F0xx_HAL_Driver/Src/stm32f0xx_hal_pcd.c ****   
  66              		.loc 1 140 3 view .LVU6
 143:Drivers/STM32F0xx_HAL_Driver/Src/stm32f0xx_hal_pcd.c ****   {
  67              		.loc 1 143 3 view .LVU7
 143:Drivers/STM32F0xx_HAL_Driver/Src/stm32f0xx_hal_pcd.c ****   {
  68              		.loc 1 143 5 is_stmt 0 view .LVU8
  69 0004 58D0     		beq	.L9
 149:Drivers/STM32F0xx_HAL_Driver/Src/stm32f0xx_hal_pcd.c **** 
  70              		.loc 1 149 3 is_stmt 1 view .LVU9
 151:Drivers/STM32F0xx_HAL_Driver/Src/stm32f0xx_hal_pcd.c ****   {  
  71              		.loc 1 151 3 view .LVU10
 151:Drivers/STM32F0xx_HAL_Driver/Src/stm32f0xx_hal_pcd.c ****   {  
  72              		.loc 1 151 10 is_stmt 0 view .LVU11
  73 0006 EA23     		movs	r3, #234
  74 0008 FF33     		adds	r3, r3, #255
  75 000a C35C     		ldrb	r3, [r0, r3]
 151:Drivers/STM32F0xx_HAL_Driver/Src/stm32f0xx_hal_pcd.c ****   {  
  76              		.loc 1 151 5 view .LVU12
  77 000c 002B     		cmp	r3, #0
  78 000e 1AD0     		beq	.L10
  79              	.LVL3:
  80              	.L4:
 160:Drivers/STM32F0xx_HAL_Driver/Src/stm32f0xx_hal_pcd.c ****  
  81              		.loc 1 160 3 is_stmt 1 view .LVU13
 160:Drivers/STM32F0xx_HAL_Driver/Src/stm32f0xx_hal_pcd.c ****  
  82              		.loc 1 160 15 is_stmt 0 view .LVU14
ARM GAS  /tmp/cclz3j42.s 			page 7


  83 0010 EA23     		movs	r3, #234
  84 0012 FF33     		adds	r3, r3, #255
  85 0014 0322     		movs	r2, #3
  86 0016 E254     		strb	r2, [r4, r3]
 163:Drivers/STM32F0xx_HAL_Driver/Src/stm32f0xx_hal_pcd.c ****  {
  87              		.loc 1 163 2 is_stmt 1 view .LVU15
 163:Drivers/STM32F0xx_HAL_Driver/Src/stm32f0xx_hal_pcd.c ****  {
  88              		.loc 1 163 9 is_stmt 0 view .LVU16
  89 0018 0022     		movs	r2, #0
  90              	.LVL4:
  91              	.L5:
 163:Drivers/STM32F0xx_HAL_Driver/Src/stm32f0xx_hal_pcd.c ****  {
  92              		.loc 1 163 29 discriminator 1 view .LVU17
  93 001a 6068     		ldr	r0, [r4, #4]
 163:Drivers/STM32F0xx_HAL_Driver/Src/stm32f0xx_hal_pcd.c ****  {
  94              		.loc 1 163 2 discriminator 1 view .LVU18
  95 001c 9042     		cmp	r0, r2
  96 001e 19D9     		bls	.L11
 166:Drivers/STM32F0xx_HAL_Driver/Src/stm32f0xx_hal_pcd.c ****    hpcd->IN_ep[i].num = i;
  97              		.loc 1 166 4 is_stmt 1 discriminator 3 view .LVU19
 166:Drivers/STM32F0xx_HAL_Driver/Src/stm32f0xx_hal_pcd.c ****    hpcd->IN_ep[i].num = i;
  98              		.loc 1 166 25 is_stmt 0 discriminator 3 view .LVU20
  99 0020 D100     		lsls	r1, r2, #3
 100 0022 891A     		subs	r1, r1, r2
 101 0024 8B00     		lsls	r3, r1, #2
 102 0026 E318     		adds	r3, r4, r3
 103 0028 1900     		movs	r1, r3
 104 002a 2931     		adds	r1, r1, #41
 105 002c 0120     		movs	r0, #1
 106 002e 0870     		strb	r0, [r1]
 167:Drivers/STM32F0xx_HAL_Driver/Src/stm32f0xx_hal_pcd.c ****    /* Control until ep is actvated */
 107              		.loc 1 167 4 is_stmt 1 discriminator 3 view .LVU21
 167:Drivers/STM32F0xx_HAL_Driver/Src/stm32f0xx_hal_pcd.c ****    /* Control until ep is actvated */
 108              		.loc 1 167 23 is_stmt 0 discriminator 3 view .LVU22
 109 0030 0139     		subs	r1, r1, #1
 110 0032 0A70     		strb	r2, [r1]
 169:Drivers/STM32F0xx_HAL_Driver/Src/stm32f0xx_hal_pcd.c ****    hpcd->IN_ep[i].maxpacket =  0U;
 111              		.loc 1 169 4 is_stmt 1 discriminator 3 view .LVU23
 169:Drivers/STM32F0xx_HAL_Driver/Src/stm32f0xx_hal_pcd.c ****    hpcd->IN_ep[i].maxpacket =  0U;
 112              		.loc 1 169 24 is_stmt 0 discriminator 3 view .LVU24
 113 0034 1800     		movs	r0, r3
 114 0036 2B30     		adds	r0, r0, #43
 115 0038 0021     		movs	r1, #0
 116 003a 0170     		strb	r1, [r0]
 170:Drivers/STM32F0xx_HAL_Driver/Src/stm32f0xx_hal_pcd.c ****    hpcd->IN_ep[i].xfer_buff = 0U;
 117              		.loc 1 170 4 is_stmt 1 discriminator 3 view .LVU25
 170:Drivers/STM32F0xx_HAL_Driver/Src/stm32f0xx_hal_pcd.c ****    hpcd->IN_ep[i].xfer_buff = 0U;
 118              		.loc 1 170 29 is_stmt 0 discriminator 3 view .LVU26
 119 003c 5963     		str	r1, [r3, #52]
 171:Drivers/STM32F0xx_HAL_Driver/Src/stm32f0xx_hal_pcd.c ****    hpcd->IN_ep[i].xfer_len = 0U;
 120              		.loc 1 171 4 is_stmt 1 discriminator 3 view .LVU27
 171:Drivers/STM32F0xx_HAL_Driver/Src/stm32f0xx_hal_pcd.c ****    hpcd->IN_ep[i].xfer_len = 0U;
 121              		.loc 1 171 29 is_stmt 0 discriminator 3 view .LVU28
 122 003e 9963     		str	r1, [r3, #56]
 172:Drivers/STM32F0xx_HAL_Driver/Src/stm32f0xx_hal_pcd.c ****  }
 123              		.loc 1 172 4 is_stmt 1 discriminator 3 view .LVU29
 172:Drivers/STM32F0xx_HAL_Driver/Src/stm32f0xx_hal_pcd.c ****  }
ARM GAS  /tmp/cclz3j42.s 			page 8


 124              		.loc 1 172 28 is_stmt 0 discriminator 3 view .LVU30
 125 0040 D963     		str	r1, [r3, #60]
 163:Drivers/STM32F0xx_HAL_Driver/Src/stm32f0xx_hal_pcd.c ****  {
 126              		.loc 1 163 47 discriminator 3 view .LVU31
 127 0042 0132     		adds	r2, r2, #1
 128              	.LVL5:
 163:Drivers/STM32F0xx_HAL_Driver/Src/stm32f0xx_hal_pcd.c ****  {
 129              		.loc 1 163 47 discriminator 3 view .LVU32
 130 0044 E9E7     		b	.L5
 131              	.LVL6:
 132              	.L10:
 154:Drivers/STM32F0xx_HAL_Driver/Src/stm32f0xx_hal_pcd.c ****   
 133              		.loc 1 154 5 is_stmt 1 view .LVU33
 154:Drivers/STM32F0xx_HAL_Driver/Src/stm32f0xx_hal_pcd.c ****   
 134              		.loc 1 154 16 is_stmt 0 view .LVU34
 135 0046 E933     		adds	r3, r3, #233
 136 0048 FF33     		adds	r3, r3, #255
 137 004a 0022     		movs	r2, #0
 138 004c C254     		strb	r2, [r0, r3]
 157:Drivers/STM32F0xx_HAL_Driver/Src/stm32f0xx_hal_pcd.c ****   }
 139              		.loc 1 157 5 is_stmt 1 view .LVU35
 140 004e FFF7FEFF 		bl	HAL_PCD_MspInit
 141              	.LVL7:
 157:Drivers/STM32F0xx_HAL_Driver/Src/stm32f0xx_hal_pcd.c ****   }
 142              		.loc 1 157 5 is_stmt 0 view .LVU36
 143 0052 DDE7     		b	.L4
 144              	.LVL8:
 145              	.L11:
 175:Drivers/STM32F0xx_HAL_Driver/Src/stm32f0xx_hal_pcd.c ****  {
 146              		.loc 1 175 9 view .LVU37
 147 0054 0022     		movs	r2, #0
 148              	.LVL9:
 149              	.L7:
 175:Drivers/STM32F0xx_HAL_Driver/Src/stm32f0xx_hal_pcd.c ****  {
 150              		.loc 1 175 2 discriminator 1 view .LVU38
 151 0056 9042     		cmp	r0, r2
 152 0058 15D9     		bls	.L12
 177:Drivers/STM32F0xx_HAL_Driver/Src/stm32f0xx_hal_pcd.c ****    hpcd->OUT_ep[i].num = i;
 153              		.loc 1 177 4 is_stmt 1 discriminator 3 view .LVU39
 177:Drivers/STM32F0xx_HAL_Driver/Src/stm32f0xx_hal_pcd.c ****    hpcd->OUT_ep[i].num = i;
 154              		.loc 1 177 26 is_stmt 0 discriminator 3 view .LVU40
 155 005a D100     		lsls	r1, r2, #3
 156 005c 891A     		subs	r1, r1, r2
 157 005e 8B00     		lsls	r3, r1, #2
 158 0060 E318     		adds	r3, r4, r3
 159 0062 1D00     		movs	r5, r3
 160 0064 0A35     		adds	r5, r5, #10
 161 0066 FF35     		adds	r5, r5, #255
 162 0068 0021     		movs	r1, #0
 163 006a 2970     		strb	r1, [r5]
 178:Drivers/STM32F0xx_HAL_Driver/Src/stm32f0xx_hal_pcd.c ****    /* Control until ep is activated */
 164              		.loc 1 178 4 is_stmt 1 discriminator 3 view .LVU41
 178:Drivers/STM32F0xx_HAL_Driver/Src/stm32f0xx_hal_pcd.c ****    /* Control until ep is activated */
 165              		.loc 1 178 24 is_stmt 0 discriminator 3 view .LVU42
 166 006c 013D     		subs	r5, r5, #1
 167 006e 2A70     		strb	r2, [r5]
 180:Drivers/STM32F0xx_HAL_Driver/Src/stm32f0xx_hal_pcd.c ****    hpcd->OUT_ep[i].maxpacket = 0U;
ARM GAS  /tmp/cclz3j42.s 			page 9


 168              		.loc 1 180 4 is_stmt 1 discriminator 3 view .LVU43
 180:Drivers/STM32F0xx_HAL_Driver/Src/stm32f0xx_hal_pcd.c ****    hpcd->OUT_ep[i].maxpacket = 0U;
 169              		.loc 1 180 25 is_stmt 0 discriminator 3 view .LVU44
 170 0070 0335     		adds	r5, r5, #3
 171 0072 2970     		strb	r1, [r5]
 181:Drivers/STM32F0xx_HAL_Driver/Src/stm32f0xx_hal_pcd.c ****    hpcd->OUT_ep[i].xfer_buff = 0U;
 172              		.loc 1 181 4 is_stmt 1 discriminator 3 view .LVU45
 181:Drivers/STM32F0xx_HAL_Driver/Src/stm32f0xx_hal_pcd.c ****    hpcd->OUT_ep[i].xfer_buff = 0U;
 173              		.loc 1 181 30 is_stmt 0 discriminator 3 view .LVU46
 174 0074 0935     		adds	r5, r5, #9
 175 0076 2960     		str	r1, [r5]
 182:Drivers/STM32F0xx_HAL_Driver/Src/stm32f0xx_hal_pcd.c ****    hpcd->OUT_ep[i].xfer_len = 0U;
 176              		.loc 1 182 4 is_stmt 1 discriminator 3 view .LVU47
 182:Drivers/STM32F0xx_HAL_Driver/Src/stm32f0xx_hal_pcd.c ****    hpcd->OUT_ep[i].xfer_len = 0U;
 177              		.loc 1 182 30 is_stmt 0 discriminator 3 view .LVU48
 178 0078 0435     		adds	r5, r5, #4
 179 007a 2960     		str	r1, [r5]
 183:Drivers/STM32F0xx_HAL_Driver/Src/stm32f0xx_hal_pcd.c ****  }
 180              		.loc 1 183 4 is_stmt 1 discriminator 3 view .LVU49
 183:Drivers/STM32F0xx_HAL_Driver/Src/stm32f0xx_hal_pcd.c ****  }
 181              		.loc 1 183 29 is_stmt 0 discriminator 3 view .LVU50
 182 007c 1D33     		adds	r3, r3, #29
 183 007e FF33     		adds	r3, r3, #255
 184 0080 1960     		str	r1, [r3]
 175:Drivers/STM32F0xx_HAL_Driver/Src/stm32f0xx_hal_pcd.c ****  {
 185              		.loc 1 175 47 discriminator 3 view .LVU51
 186 0082 0132     		adds	r2, r2, #1
 187              	.LVL10:
 175:Drivers/STM32F0xx_HAL_Driver/Src/stm32f0xx_hal_pcd.c ****  {
 188              		.loc 1 175 47 discriminator 3 view .LVU52
 189 0084 E7E7     		b	.L7
 190              	.L12:
 188:Drivers/STM32F0xx_HAL_Driver/Src/stm32f0xx_hal_pcd.c ****  
 191              		.loc 1 188 2 is_stmt 1 view .LVU53
 188:Drivers/STM32F0xx_HAL_Driver/Src/stm32f0xx_hal_pcd.c ****  
 192              		.loc 1 188 23 is_stmt 0 view .LVU54
 193 0086 4023     		movs	r3, #64
 194 0088 0122     		movs	r2, #1
 195              	.LVL11:
 188:Drivers/STM32F0xx_HAL_Driver/Src/stm32f0xx_hal_pcd.c ****  
 196              		.loc 1 188 23 view .LVU55
 197 008a 2168     		ldr	r1, [r4]
 198 008c CA52     		strh	r2, [r1, r3]
 191:Drivers/STM32F0xx_HAL_Driver/Src/stm32f0xx_hal_pcd.c ****  
 199              		.loc 1 191 2 is_stmt 1 view .LVU56
 191:Drivers/STM32F0xx_HAL_Driver/Src/stm32f0xx_hal_pcd.c ****  
 200              		.loc 1 191 23 is_stmt 0 view .LVU57
 201 008e 0022     		movs	r2, #0
 202 0090 2168     		ldr	r1, [r4]
 203 0092 CA52     		strh	r2, [r1, r3]
 194:Drivers/STM32F0xx_HAL_Driver/Src/stm32f0xx_hal_pcd.c ****  
 204              		.loc 1 194 2 is_stmt 1 view .LVU58
 194:Drivers/STM32F0xx_HAL_Driver/Src/stm32f0xx_hal_pcd.c ****  
 205              		.loc 1 194 23 is_stmt 0 view .LVU59
 206 0094 4421     		movs	r1, #68
 207 0096 2068     		ldr	r0, [r4]
 208 0098 4252     		strh	r2, [r0, r1]
ARM GAS  /tmp/cclz3j42.s 			page 10


 197:Drivers/STM32F0xx_HAL_Driver/Src/stm32f0xx_hal_pcd.c ****   
 209              		.loc 1 197 2 is_stmt 1 view .LVU60
 197:Drivers/STM32F0xx_HAL_Driver/Src/stm32f0xx_hal_pcd.c ****   
 210              		.loc 1 197 25 is_stmt 0 view .LVU61
 211 009a 0C31     		adds	r1, r1, #12
 212 009c 2068     		ldr	r0, [r4]
 213 009e 4252     		strh	r2, [r0, r1]
 200:Drivers/STM32F0xx_HAL_Driver/Src/stm32f0xx_hal_pcd.c ****    | USB_CNTR_SOFM | USB_CNTR_ESOFM | USB_CNTR_RESETM;
 214              		.loc 1 200 2 is_stmt 1 view .LVU62
 215              	.LVL12:
 204:Drivers/STM32F0xx_HAL_Driver/Src/stm32f0xx_hal_pcd.c ****   
 216              		.loc 1 204 3 view .LVU63
 204:Drivers/STM32F0xx_HAL_Driver/Src/stm32f0xx_hal_pcd.c ****   
 217              		.loc 1 204 24 is_stmt 0 view .LVU64
 218 00a0 064A     		ldr	r2, .L13
 219 00a2 2168     		ldr	r1, [r4]
 220 00a4 CA52     		strh	r2, [r1, r3]
 206:Drivers/STM32F0xx_HAL_Driver/Src/stm32f0xx_hal_pcd.c ****   hpcd->State= HAL_PCD_STATE_READY;
 221              		.loc 1 206 3 is_stmt 1 view .LVU65
 206:Drivers/STM32F0xx_HAL_Driver/Src/stm32f0xx_hal_pcd.c ****   hpcd->State= HAL_PCD_STATE_READY;
 222              		.loc 1 206 21 is_stmt 0 view .LVU66
 223 00a6 0022     		movs	r2, #0
 224 00a8 1C3B     		subs	r3, r3, #28
 225 00aa E254     		strb	r2, [r4, r3]
 207:Drivers/STM32F0xx_HAL_Driver/Src/stm32f0xx_hal_pcd.c **** 
 226              		.loc 1 207 3 is_stmt 1 view .LVU67
 207:Drivers/STM32F0xx_HAL_Driver/Src/stm32f0xx_hal_pcd.c **** 
 227              		.loc 1 207 14 is_stmt 0 view .LVU68
 228 00ac 0122     		movs	r2, #1
 229 00ae EA23     		movs	r3, #234
 230 00b0 FF33     		adds	r3, r3, #255
 231 00b2 E254     		strb	r2, [r4, r3]
 209:Drivers/STM32F0xx_HAL_Driver/Src/stm32f0xx_hal_pcd.c **** }
 232              		.loc 1 209 2 is_stmt 1 view .LVU69
 209:Drivers/STM32F0xx_HAL_Driver/Src/stm32f0xx_hal_pcd.c **** }
 233              		.loc 1 209 9 is_stmt 0 view .LVU70
 234 00b4 0020     		movs	r0, #0
 235              	.LVL13:
 236              	.L3:
 210:Drivers/STM32F0xx_HAL_Driver/Src/stm32f0xx_hal_pcd.c **** 
 237              		.loc 1 210 1 view .LVU71
 238              		@ sp needed
 239              	.LVL14:
 210:Drivers/STM32F0xx_HAL_Driver/Src/stm32f0xx_hal_pcd.c **** 
 240              		.loc 1 210 1 view .LVU72
 241 00b6 70BD     		pop	{r4, r5, r6, pc}
 242              	.LVL15:
 243              	.L9:
 145:Drivers/STM32F0xx_HAL_Driver/Src/stm32f0xx_hal_pcd.c ****   }
 244              		.loc 1 145 12 view .LVU73
 245 00b8 0120     		movs	r0, #1
 246              	.LVL16:
 145:Drivers/STM32F0xx_HAL_Driver/Src/stm32f0xx_hal_pcd.c ****   }
 247              		.loc 1 145 12 view .LVU74
 248 00ba FCE7     		b	.L3
 249              	.L14:
 250              		.align	2
ARM GAS  /tmp/cclz3j42.s 			page 11


 251              	.L13:
 252 00bc 00BFFFFF 		.word	-16640
 253              		.cfi_endproc
 254              	.LFE37:
 256              		.section	.text.HAL_PCD_MspDeInit,"ax",%progbits
 257              		.align	1
 258              		.weak	HAL_PCD_MspDeInit
 259              		.syntax unified
 260              		.code	16
 261              		.thumb_func
 262              		.fpu softvfp
 264              	HAL_PCD_MspDeInit:
 265              	.LVL17:
 266              	.LFB40:
 252:Drivers/STM32F0xx_HAL_Driver/Src/stm32f0xx_hal_pcd.c **** 
 253:Drivers/STM32F0xx_HAL_Driver/Src/stm32f0xx_hal_pcd.c **** /**
 254:Drivers/STM32F0xx_HAL_Driver/Src/stm32f0xx_hal_pcd.c ****   * @brief  DeInitializes PCD MSP.
 255:Drivers/STM32F0xx_HAL_Driver/Src/stm32f0xx_hal_pcd.c ****   * @param  hpcd PCD handle
 256:Drivers/STM32F0xx_HAL_Driver/Src/stm32f0xx_hal_pcd.c ****   * @retval None
 257:Drivers/STM32F0xx_HAL_Driver/Src/stm32f0xx_hal_pcd.c ****   */
 258:Drivers/STM32F0xx_HAL_Driver/Src/stm32f0xx_hal_pcd.c **** __weak void HAL_PCD_MspDeInit(PCD_HandleTypeDef *hpcd)
 259:Drivers/STM32F0xx_HAL_Driver/Src/stm32f0xx_hal_pcd.c **** {
 267              		.loc 1 259 1 is_stmt 1 view -0
 268              		.cfi_startproc
 269              		@ args = 0, pretend = 0, frame = 0
 270              		@ frame_needed = 0, uses_anonymous_args = 0
 271              		@ link register save eliminated.
 260:Drivers/STM32F0xx_HAL_Driver/Src/stm32f0xx_hal_pcd.c ****   /* Prevent unused argument(s) compilation warning */
 261:Drivers/STM32F0xx_HAL_Driver/Src/stm32f0xx_hal_pcd.c ****   UNUSED(hpcd);
 272              		.loc 1 261 3 view .LVU76
 262:Drivers/STM32F0xx_HAL_Driver/Src/stm32f0xx_hal_pcd.c **** 
 263:Drivers/STM32F0xx_HAL_Driver/Src/stm32f0xx_hal_pcd.c ****   /* NOTE : This function Should not be modified, when the callback is needed,
 264:Drivers/STM32F0xx_HAL_Driver/Src/stm32f0xx_hal_pcd.c ****             the HAL_PCD_MspDeInit could be implemented in the user file
 265:Drivers/STM32F0xx_HAL_Driver/Src/stm32f0xx_hal_pcd.c ****    */
 266:Drivers/STM32F0xx_HAL_Driver/Src/stm32f0xx_hal_pcd.c **** }
 273              		.loc 1 266 1 is_stmt 0 view .LVU77
 274              		@ sp needed
 275 0000 7047     		bx	lr
 276              		.cfi_endproc
 277              	.LFE40:
 279              		.section	.text.HAL_PCD_Start,"ax",%progbits
 280              		.align	1
 281              		.global	HAL_PCD_Start
 282              		.syntax unified
 283              		.code	16
 284              		.thumb_func
 285              		.fpu softvfp
 287              	HAL_PCD_Start:
 288              	.LVL18:
 289              	.LFB41:
 267:Drivers/STM32F0xx_HAL_Driver/Src/stm32f0xx_hal_pcd.c **** 
 268:Drivers/STM32F0xx_HAL_Driver/Src/stm32f0xx_hal_pcd.c **** /**
 269:Drivers/STM32F0xx_HAL_Driver/Src/stm32f0xx_hal_pcd.c ****   * @}
 270:Drivers/STM32F0xx_HAL_Driver/Src/stm32f0xx_hal_pcd.c ****   */
 271:Drivers/STM32F0xx_HAL_Driver/Src/stm32f0xx_hal_pcd.c **** 
 272:Drivers/STM32F0xx_HAL_Driver/Src/stm32f0xx_hal_pcd.c **** /** @defgroup PCD_Exported_Functions_Group2 IO operation functions 
 273:Drivers/STM32F0xx_HAL_Driver/Src/stm32f0xx_hal_pcd.c ****  *  @brief   Data transfers functions 
ARM GAS  /tmp/cclz3j42.s 			page 12


 274:Drivers/STM32F0xx_HAL_Driver/Src/stm32f0xx_hal_pcd.c ****  *
 275:Drivers/STM32F0xx_HAL_Driver/Src/stm32f0xx_hal_pcd.c **** @verbatim   
 276:Drivers/STM32F0xx_HAL_Driver/Src/stm32f0xx_hal_pcd.c ****  ===============================================================================
 277:Drivers/STM32F0xx_HAL_Driver/Src/stm32f0xx_hal_pcd.c ****                       ##### IO operation functions #####
 278:Drivers/STM32F0xx_HAL_Driver/Src/stm32f0xx_hal_pcd.c ****  ===============================================================================  
 279:Drivers/STM32F0xx_HAL_Driver/Src/stm32f0xx_hal_pcd.c ****     [..]
 280:Drivers/STM32F0xx_HAL_Driver/Src/stm32f0xx_hal_pcd.c ****     This subsection provides a set of functions allowing to manage the PCD data 
 281:Drivers/STM32F0xx_HAL_Driver/Src/stm32f0xx_hal_pcd.c ****     transfers.
 282:Drivers/STM32F0xx_HAL_Driver/Src/stm32f0xx_hal_pcd.c **** 
 283:Drivers/STM32F0xx_HAL_Driver/Src/stm32f0xx_hal_pcd.c **** @endverbatim
 284:Drivers/STM32F0xx_HAL_Driver/Src/stm32f0xx_hal_pcd.c ****   * @{
 285:Drivers/STM32F0xx_HAL_Driver/Src/stm32f0xx_hal_pcd.c ****   */
 286:Drivers/STM32F0xx_HAL_Driver/Src/stm32f0xx_hal_pcd.c ****   
 287:Drivers/STM32F0xx_HAL_Driver/Src/stm32f0xx_hal_pcd.c **** /**
 288:Drivers/STM32F0xx_HAL_Driver/Src/stm32f0xx_hal_pcd.c ****   * @brief  Start the USB device.
 289:Drivers/STM32F0xx_HAL_Driver/Src/stm32f0xx_hal_pcd.c ****   * @param  hpcd PCD handle
 290:Drivers/STM32F0xx_HAL_Driver/Src/stm32f0xx_hal_pcd.c ****   * @retval HAL status
 291:Drivers/STM32F0xx_HAL_Driver/Src/stm32f0xx_hal_pcd.c ****   */
 292:Drivers/STM32F0xx_HAL_Driver/Src/stm32f0xx_hal_pcd.c **** HAL_StatusTypeDef HAL_PCD_Start(PCD_HandleTypeDef *hpcd)
 293:Drivers/STM32F0xx_HAL_Driver/Src/stm32f0xx_hal_pcd.c **** { 
 290              		.loc 1 293 1 is_stmt 1 view -0
 291              		.cfi_startproc
 292              		@ args = 0, pretend = 0, frame = 0
 293              		@ frame_needed = 0, uses_anonymous_args = 0
 294              		@ link register save eliminated.
 294:Drivers/STM32F0xx_HAL_Driver/Src/stm32f0xx_hal_pcd.c ****   /* Enabling DP Pull-Down bit to Connect internal pull-up on USB DP line */
 295:Drivers/STM32F0xx_HAL_Driver/Src/stm32f0xx_hal_pcd.c ****   hpcd->Instance->BCDR |= USB_BCDR_DPPU;
 295              		.loc 1 295 3 view .LVU79
 296              		.loc 1 295 7 is_stmt 0 view .LVU80
 297 0000 0168     		ldr	r1, [r0]
 298              		.loc 1 295 24 view .LVU81
 299 0002 5822     		movs	r2, #88
 300 0004 8B5A     		ldrh	r3, [r1, r2]
 301 0006 0348     		ldr	r0, .L17
 302              	.LVL19:
 303              		.loc 1 295 24 view .LVU82
 304 0008 0343     		orrs	r3, r0
 305 000a 9BB2     		uxth	r3, r3
 306 000c 8B52     		strh	r3, [r1, r2]
 296:Drivers/STM32F0xx_HAL_Driver/Src/stm32f0xx_hal_pcd.c ****   
 297:Drivers/STM32F0xx_HAL_Driver/Src/stm32f0xx_hal_pcd.c ****   return HAL_OK;
 307              		.loc 1 297 3 is_stmt 1 view .LVU83
 298:Drivers/STM32F0xx_HAL_Driver/Src/stm32f0xx_hal_pcd.c **** }
 308              		.loc 1 298 1 is_stmt 0 view .LVU84
 309 000e 0020     		movs	r0, #0
 310              		@ sp needed
 311 0010 7047     		bx	lr
 312              	.L18:
 313 0012 C046     		.align	2
 314              	.L17:
 315 0014 0080FFFF 		.word	-32768
 316              		.cfi_endproc
 317              	.LFE41:
 319              		.section	.text.HAL_PCD_Stop,"ax",%progbits
 320              		.align	1
 321              		.global	HAL_PCD_Stop
 322              		.syntax unified
ARM GAS  /tmp/cclz3j42.s 			page 13


 323              		.code	16
 324              		.thumb_func
 325              		.fpu softvfp
 327              	HAL_PCD_Stop:
 328              	.LVL20:
 329              	.LFB42:
 299:Drivers/STM32F0xx_HAL_Driver/Src/stm32f0xx_hal_pcd.c **** 
 300:Drivers/STM32F0xx_HAL_Driver/Src/stm32f0xx_hal_pcd.c **** /**
 301:Drivers/STM32F0xx_HAL_Driver/Src/stm32f0xx_hal_pcd.c ****   * @brief  Stop the USB device.
 302:Drivers/STM32F0xx_HAL_Driver/Src/stm32f0xx_hal_pcd.c ****   * @param  hpcd PCD handle
 303:Drivers/STM32F0xx_HAL_Driver/Src/stm32f0xx_hal_pcd.c ****   * @retval HAL status
 304:Drivers/STM32F0xx_HAL_Driver/Src/stm32f0xx_hal_pcd.c ****   */
 305:Drivers/STM32F0xx_HAL_Driver/Src/stm32f0xx_hal_pcd.c **** HAL_StatusTypeDef HAL_PCD_Stop(PCD_HandleTypeDef *hpcd)
 306:Drivers/STM32F0xx_HAL_Driver/Src/stm32f0xx_hal_pcd.c **** { 
 330              		.loc 1 306 1 is_stmt 1 view -0
 331              		.cfi_startproc
 332              		@ args = 0, pretend = 0, frame = 0
 333              		@ frame_needed = 0, uses_anonymous_args = 0
 334              		.loc 1 306 1 is_stmt 0 view .LVU86
 335 0000 10B5     		push	{r4, lr}
 336              	.LCFI1:
 337              		.cfi_def_cfa_offset 8
 338              		.cfi_offset 4, -8
 339              		.cfi_offset 14, -4
 307:Drivers/STM32F0xx_HAL_Driver/Src/stm32f0xx_hal_pcd.c ****   __HAL_LOCK(hpcd); 
 340              		.loc 1 307 3 is_stmt 1 view .LVU87
 341              		.loc 1 307 3 view .LVU88
 342 0002 F423     		movs	r3, #244
 343 0004 5B00     		lsls	r3, r3, #1
 344 0006 C35C     		ldrb	r3, [r0, r3]
 345 0008 012B     		cmp	r3, #1
 346 000a 10D0     		beq	.L21
 347              		.loc 1 307 3 discriminator 2 view .LVU89
 308:Drivers/STM32F0xx_HAL_Driver/Src/stm32f0xx_hal_pcd.c ****   
 309:Drivers/STM32F0xx_HAL_Driver/Src/stm32f0xx_hal_pcd.c ****     /* disable all interrupts and force USB reset */
 310:Drivers/STM32F0xx_HAL_Driver/Src/stm32f0xx_hal_pcd.c ****   hpcd->Instance->CNTR = USB_CNTR_FRES;
 348              		.loc 1 310 3 discriminator 2 view .LVU90
 349              		.loc 1 310 24 is_stmt 0 discriminator 2 view .LVU91
 350 000c 4023     		movs	r3, #64
 351 000e 0122     		movs	r2, #1
 352 0010 0168     		ldr	r1, [r0]
 353 0012 CA52     		strh	r2, [r1, r3]
 311:Drivers/STM32F0xx_HAL_Driver/Src/stm32f0xx_hal_pcd.c ****   
 312:Drivers/STM32F0xx_HAL_Driver/Src/stm32f0xx_hal_pcd.c ****   /* clear interrupt status register */
 313:Drivers/STM32F0xx_HAL_Driver/Src/stm32f0xx_hal_pcd.c ****   hpcd->Instance->ISTR = 0;
 354              		.loc 1 313 3 is_stmt 1 discriminator 2 view .LVU92
 355              		.loc 1 313 24 is_stmt 0 discriminator 2 view .LVU93
 356 0014 4332     		adds	r2, r2, #67
 357 0016 0021     		movs	r1, #0
 358 0018 0468     		ldr	r4, [r0]
 359 001a A152     		strh	r1, [r4, r2]
 314:Drivers/STM32F0xx_HAL_Driver/Src/stm32f0xx_hal_pcd.c ****   
 315:Drivers/STM32F0xx_HAL_Driver/Src/stm32f0xx_hal_pcd.c ****   /* switch-off device */
 316:Drivers/STM32F0xx_HAL_Driver/Src/stm32f0xx_hal_pcd.c ****   hpcd->Instance->CNTR = (USB_CNTR_FRES | USB_CNTR_PDWN);
 360              		.loc 1 316 3 is_stmt 1 discriminator 2 view .LVU94
 361              		.loc 1 316 24 is_stmt 0 discriminator 2 view .LVU95
 362 001c 413A     		subs	r2, r2, #65
ARM GAS  /tmp/cclz3j42.s 			page 14


 363 001e 0168     		ldr	r1, [r0]
 364 0020 CA52     		strh	r2, [r1, r3]
 317:Drivers/STM32F0xx_HAL_Driver/Src/stm32f0xx_hal_pcd.c ****   
 318:Drivers/STM32F0xx_HAL_Driver/Src/stm32f0xx_hal_pcd.c ****   __HAL_UNLOCK(hpcd); 
 365              		.loc 1 318 3 is_stmt 1 discriminator 2 view .LVU96
 366              		.loc 1 318 3 discriminator 2 view .LVU97
 367 0022 0022     		movs	r2, #0
 368 0024 A933     		adds	r3, r3, #169
 369 0026 FF33     		adds	r3, r3, #255
 370 0028 C254     		strb	r2, [r0, r3]
 319:Drivers/STM32F0xx_HAL_Driver/Src/stm32f0xx_hal_pcd.c ****   return HAL_OK;
 371              		.loc 1 319 3 discriminator 2 view .LVU98
 372              		.loc 1 319 10 is_stmt 0 discriminator 2 view .LVU99
 373 002a 0020     		movs	r0, #0
 374              	.LVL21:
 375              	.L20:
 320:Drivers/STM32F0xx_HAL_Driver/Src/stm32f0xx_hal_pcd.c **** }
 376              		.loc 1 320 1 view .LVU100
 377              		@ sp needed
 378 002c 10BD     		pop	{r4, pc}
 379              	.LVL22:
 380              	.L21:
 307:Drivers/STM32F0xx_HAL_Driver/Src/stm32f0xx_hal_pcd.c ****   
 381              		.loc 1 307 3 view .LVU101
 382 002e 0220     		movs	r0, #2
 383              	.LVL23:
 307:Drivers/STM32F0xx_HAL_Driver/Src/stm32f0xx_hal_pcd.c ****   
 384              		.loc 1 307 3 view .LVU102
 385 0030 FCE7     		b	.L20
 386              		.cfi_endproc
 387              	.LFE42:
 389              		.section	.text.HAL_PCD_DeInit,"ax",%progbits
 390              		.align	1
 391              		.global	HAL_PCD_DeInit
 392              		.syntax unified
 393              		.code	16
 394              		.thumb_func
 395              		.fpu softvfp
 397              	HAL_PCD_DeInit:
 398              	.LVL24:
 399              	.LFB38:
 218:Drivers/STM32F0xx_HAL_Driver/Src/stm32f0xx_hal_pcd.c ****   /* Check the PCD handle allocation */
 400              		.loc 1 218 1 is_stmt 1 view -0
 401              		.cfi_startproc
 402              		@ args = 0, pretend = 0, frame = 0
 403              		@ frame_needed = 0, uses_anonymous_args = 0
 218:Drivers/STM32F0xx_HAL_Driver/Src/stm32f0xx_hal_pcd.c ****   /* Check the PCD handle allocation */
 404              		.loc 1 218 1 is_stmt 0 view .LVU104
 405 0000 70B5     		push	{r4, r5, r6, lr}
 406              	.LCFI2:
 407              		.cfi_def_cfa_offset 16
 408              		.cfi_offset 4, -16
 409              		.cfi_offset 5, -12
 410              		.cfi_offset 6, -8
 411              		.cfi_offset 14, -4
 412 0002 041E     		subs	r4, r0, #0
 220:Drivers/STM32F0xx_HAL_Driver/Src/stm32f0xx_hal_pcd.c ****   {
ARM GAS  /tmp/cclz3j42.s 			page 15


 413              		.loc 1 220 3 is_stmt 1 view .LVU105
 220:Drivers/STM32F0xx_HAL_Driver/Src/stm32f0xx_hal_pcd.c ****   {
 414              		.loc 1 220 5 is_stmt 0 view .LVU106
 415 0004 0CD0     		beq	.L24
 225:Drivers/STM32F0xx_HAL_Driver/Src/stm32f0xx_hal_pcd.c ****   
 416              		.loc 1 225 3 is_stmt 1 view .LVU107
 225:Drivers/STM32F0xx_HAL_Driver/Src/stm32f0xx_hal_pcd.c ****   
 417              		.loc 1 225 15 is_stmt 0 view .LVU108
 418 0006 EA25     		movs	r5, #234
 419 0008 FF35     		adds	r5, r5, #255
 420 000a 0323     		movs	r3, #3
 421 000c 4355     		strb	r3, [r0, r5]
 228:Drivers/STM32F0xx_HAL_Driver/Src/stm32f0xx_hal_pcd.c ****     
 422              		.loc 1 228 3 is_stmt 1 view .LVU109
 423 000e FFF7FEFF 		bl	HAL_PCD_Stop
 424              	.LVL25:
 231:Drivers/STM32F0xx_HAL_Driver/Src/stm32f0xx_hal_pcd.c ****   
 425              		.loc 1 231 3 view .LVU110
 426 0012 2000     		movs	r0, r4
 427 0014 FFF7FEFF 		bl	HAL_PCD_MspDeInit
 428              	.LVL26:
 233:Drivers/STM32F0xx_HAL_Driver/Src/stm32f0xx_hal_pcd.c ****   
 429              		.loc 1 233 3 view .LVU111
 233:Drivers/STM32F0xx_HAL_Driver/Src/stm32f0xx_hal_pcd.c ****   
 430              		.loc 1 233 15 is_stmt 0 view .LVU112
 431 0018 0023     		movs	r3, #0
 432 001a 6355     		strb	r3, [r4, r5]
 235:Drivers/STM32F0xx_HAL_Driver/Src/stm32f0xx_hal_pcd.c **** }
 433              		.loc 1 235 3 is_stmt 1 view .LVU113
 235:Drivers/STM32F0xx_HAL_Driver/Src/stm32f0xx_hal_pcd.c **** }
 434              		.loc 1 235 10 is_stmt 0 view .LVU114
 435 001c 0020     		movs	r0, #0
 436              	.L23:
 236:Drivers/STM32F0xx_HAL_Driver/Src/stm32f0xx_hal_pcd.c **** 
 437              		.loc 1 236 1 view .LVU115
 438              		@ sp needed
 439              	.LVL27:
 236:Drivers/STM32F0xx_HAL_Driver/Src/stm32f0xx_hal_pcd.c **** 
 440              		.loc 1 236 1 view .LVU116
 441 001e 70BD     		pop	{r4, r5, r6, pc}
 442              	.LVL28:
 443              	.L24:
 222:Drivers/STM32F0xx_HAL_Driver/Src/stm32f0xx_hal_pcd.c ****   }
 444              		.loc 1 222 12 view .LVU117
 445 0020 0120     		movs	r0, #1
 446              	.LVL29:
 222:Drivers/STM32F0xx_HAL_Driver/Src/stm32f0xx_hal_pcd.c ****   }
 447              		.loc 1 222 12 view .LVU118
 448 0022 FCE7     		b	.L23
 449              		.cfi_endproc
 450              	.LFE38:
 452              		.section	.text.HAL_PCD_DataOutStageCallback,"ax",%progbits
 453              		.align	1
 454              		.weak	HAL_PCD_DataOutStageCallback
 455              		.syntax unified
 456              		.code	16
 457              		.thumb_func
ARM GAS  /tmp/cclz3j42.s 			page 16


 458              		.fpu softvfp
 460              	HAL_PCD_DataOutStageCallback:
 461              	.LVL30:
 462              	.LFB44:
 321:Drivers/STM32F0xx_HAL_Driver/Src/stm32f0xx_hal_pcd.c **** 
 322:Drivers/STM32F0xx_HAL_Driver/Src/stm32f0xx_hal_pcd.c **** /**
 323:Drivers/STM32F0xx_HAL_Driver/Src/stm32f0xx_hal_pcd.c ****   * @brief  This function handles PCD interrupt request.
 324:Drivers/STM32F0xx_HAL_Driver/Src/stm32f0xx_hal_pcd.c ****   * @param  hpcd PCD handle
 325:Drivers/STM32F0xx_HAL_Driver/Src/stm32f0xx_hal_pcd.c ****   * @retval HAL status
 326:Drivers/STM32F0xx_HAL_Driver/Src/stm32f0xx_hal_pcd.c ****   */
 327:Drivers/STM32F0xx_HAL_Driver/Src/stm32f0xx_hal_pcd.c **** void HAL_PCD_IRQHandler(PCD_HandleTypeDef *hpcd)
 328:Drivers/STM32F0xx_HAL_Driver/Src/stm32f0xx_hal_pcd.c **** {
 329:Drivers/STM32F0xx_HAL_Driver/Src/stm32f0xx_hal_pcd.c ****   uint32_t wInterrupt_Mask = 0U;
 330:Drivers/STM32F0xx_HAL_Driver/Src/stm32f0xx_hal_pcd.c ****   
 331:Drivers/STM32F0xx_HAL_Driver/Src/stm32f0xx_hal_pcd.c ****   if (__HAL_PCD_GET_FLAG (hpcd, USB_ISTR_CTR))
 332:Drivers/STM32F0xx_HAL_Driver/Src/stm32f0xx_hal_pcd.c ****   {
 333:Drivers/STM32F0xx_HAL_Driver/Src/stm32f0xx_hal_pcd.c ****     /* servicing of the endpoint correct transfer interrupt */
 334:Drivers/STM32F0xx_HAL_Driver/Src/stm32f0xx_hal_pcd.c ****     /* clear of the CTR flag into the sub */
 335:Drivers/STM32F0xx_HAL_Driver/Src/stm32f0xx_hal_pcd.c ****     PCD_EP_ISR_Handler(hpcd);
 336:Drivers/STM32F0xx_HAL_Driver/Src/stm32f0xx_hal_pcd.c ****   }
 337:Drivers/STM32F0xx_HAL_Driver/Src/stm32f0xx_hal_pcd.c **** 
 338:Drivers/STM32F0xx_HAL_Driver/Src/stm32f0xx_hal_pcd.c ****   if (__HAL_PCD_GET_FLAG (hpcd, USB_ISTR_RESET))
 339:Drivers/STM32F0xx_HAL_Driver/Src/stm32f0xx_hal_pcd.c ****   {
 340:Drivers/STM32F0xx_HAL_Driver/Src/stm32f0xx_hal_pcd.c ****     __HAL_PCD_CLEAR_FLAG(hpcd, USB_ISTR_RESET);
 341:Drivers/STM32F0xx_HAL_Driver/Src/stm32f0xx_hal_pcd.c ****     HAL_PCD_ResetCallback(hpcd);
 342:Drivers/STM32F0xx_HAL_Driver/Src/stm32f0xx_hal_pcd.c ****     HAL_PCD_SetAddress(hpcd, 0U);
 343:Drivers/STM32F0xx_HAL_Driver/Src/stm32f0xx_hal_pcd.c ****   }
 344:Drivers/STM32F0xx_HAL_Driver/Src/stm32f0xx_hal_pcd.c **** 
 345:Drivers/STM32F0xx_HAL_Driver/Src/stm32f0xx_hal_pcd.c ****   if (__HAL_PCD_GET_FLAG (hpcd, USB_ISTR_PMAOVR))
 346:Drivers/STM32F0xx_HAL_Driver/Src/stm32f0xx_hal_pcd.c ****   {
 347:Drivers/STM32F0xx_HAL_Driver/Src/stm32f0xx_hal_pcd.c ****     __HAL_PCD_CLEAR_FLAG(hpcd, USB_ISTR_PMAOVR);    
 348:Drivers/STM32F0xx_HAL_Driver/Src/stm32f0xx_hal_pcd.c ****   }
 349:Drivers/STM32F0xx_HAL_Driver/Src/stm32f0xx_hal_pcd.c **** 
 350:Drivers/STM32F0xx_HAL_Driver/Src/stm32f0xx_hal_pcd.c ****   if (__HAL_PCD_GET_FLAG (hpcd, USB_ISTR_ERR))
 351:Drivers/STM32F0xx_HAL_Driver/Src/stm32f0xx_hal_pcd.c ****   {
 352:Drivers/STM32F0xx_HAL_Driver/Src/stm32f0xx_hal_pcd.c ****     __HAL_PCD_CLEAR_FLAG(hpcd, USB_ISTR_ERR); 
 353:Drivers/STM32F0xx_HAL_Driver/Src/stm32f0xx_hal_pcd.c ****   }
 354:Drivers/STM32F0xx_HAL_Driver/Src/stm32f0xx_hal_pcd.c **** 
 355:Drivers/STM32F0xx_HAL_Driver/Src/stm32f0xx_hal_pcd.c ****   if (__HAL_PCD_GET_FLAG (hpcd, USB_ISTR_WKUP))
 356:Drivers/STM32F0xx_HAL_Driver/Src/stm32f0xx_hal_pcd.c ****   {
 357:Drivers/STM32F0xx_HAL_Driver/Src/stm32f0xx_hal_pcd.c ****     
 358:Drivers/STM32F0xx_HAL_Driver/Src/stm32f0xx_hal_pcd.c ****     hpcd->Instance->CNTR &= (uint16_t)(~(USB_CNTR_LPMODE));
 359:Drivers/STM32F0xx_HAL_Driver/Src/stm32f0xx_hal_pcd.c **** 
 360:Drivers/STM32F0xx_HAL_Driver/Src/stm32f0xx_hal_pcd.c ****     /*set wInterrupt_Mask global variable*/
 361:Drivers/STM32F0xx_HAL_Driver/Src/stm32f0xx_hal_pcd.c ****     wInterrupt_Mask = USB_CNTR_CTRM  | USB_CNTR_WKUPM | USB_CNTR_SUSPM | USB_CNTR_ERRM \
 362:Drivers/STM32F0xx_HAL_Driver/Src/stm32f0xx_hal_pcd.c ****       | USB_CNTR_ESOFM | USB_CNTR_RESETM;
 363:Drivers/STM32F0xx_HAL_Driver/Src/stm32f0xx_hal_pcd.c ****     
 364:Drivers/STM32F0xx_HAL_Driver/Src/stm32f0xx_hal_pcd.c ****     /*Set interrupt mask*/
 365:Drivers/STM32F0xx_HAL_Driver/Src/stm32f0xx_hal_pcd.c ****     hpcd->Instance->CNTR = wInterrupt_Mask;
 366:Drivers/STM32F0xx_HAL_Driver/Src/stm32f0xx_hal_pcd.c ****     
 367:Drivers/STM32F0xx_HAL_Driver/Src/stm32f0xx_hal_pcd.c ****     HAL_PCD_ResumeCallback(hpcd);
 368:Drivers/STM32F0xx_HAL_Driver/Src/stm32f0xx_hal_pcd.c ****     
 369:Drivers/STM32F0xx_HAL_Driver/Src/stm32f0xx_hal_pcd.c ****     __HAL_PCD_CLEAR_FLAG(hpcd, USB_ISTR_WKUP);     
 370:Drivers/STM32F0xx_HAL_Driver/Src/stm32f0xx_hal_pcd.c ****   }
 371:Drivers/STM32F0xx_HAL_Driver/Src/stm32f0xx_hal_pcd.c **** 
 372:Drivers/STM32F0xx_HAL_Driver/Src/stm32f0xx_hal_pcd.c ****   if (__HAL_PCD_GET_FLAG (hpcd, USB_ISTR_SUSP))
 373:Drivers/STM32F0xx_HAL_Driver/Src/stm32f0xx_hal_pcd.c ****   {    
ARM GAS  /tmp/cclz3j42.s 			page 17


 374:Drivers/STM32F0xx_HAL_Driver/Src/stm32f0xx_hal_pcd.c ****     /* clear of the ISTR bit must be done after setting of CNTR_FSUSP */
 375:Drivers/STM32F0xx_HAL_Driver/Src/stm32f0xx_hal_pcd.c ****     __HAL_PCD_CLEAR_FLAG(hpcd, USB_ISTR_SUSP);  
 376:Drivers/STM32F0xx_HAL_Driver/Src/stm32f0xx_hal_pcd.c ****     
 377:Drivers/STM32F0xx_HAL_Driver/Src/stm32f0xx_hal_pcd.c ****     /* Force low-power mode in the macrocell */
 378:Drivers/STM32F0xx_HAL_Driver/Src/stm32f0xx_hal_pcd.c ****     hpcd->Instance->CNTR |= USB_CNTR_FSUSP;
 379:Drivers/STM32F0xx_HAL_Driver/Src/stm32f0xx_hal_pcd.c ****     hpcd->Instance->CNTR |= USB_CNTR_LPMODE;
 380:Drivers/STM32F0xx_HAL_Driver/Src/stm32f0xx_hal_pcd.c **** 
 381:Drivers/STM32F0xx_HAL_Driver/Src/stm32f0xx_hal_pcd.c ****     if (__HAL_PCD_GET_FLAG (hpcd, USB_ISTR_WKUP) == 0)
 382:Drivers/STM32F0xx_HAL_Driver/Src/stm32f0xx_hal_pcd.c ****     {
 383:Drivers/STM32F0xx_HAL_Driver/Src/stm32f0xx_hal_pcd.c ****       HAL_PCD_SuspendCallback(hpcd);
 384:Drivers/STM32F0xx_HAL_Driver/Src/stm32f0xx_hal_pcd.c ****     }
 385:Drivers/STM32F0xx_HAL_Driver/Src/stm32f0xx_hal_pcd.c ****   }
 386:Drivers/STM32F0xx_HAL_Driver/Src/stm32f0xx_hal_pcd.c **** 
 387:Drivers/STM32F0xx_HAL_Driver/Src/stm32f0xx_hal_pcd.c ****   if (__HAL_PCD_GET_FLAG (hpcd, USB_ISTR_SOF))
 388:Drivers/STM32F0xx_HAL_Driver/Src/stm32f0xx_hal_pcd.c ****   {
 389:Drivers/STM32F0xx_HAL_Driver/Src/stm32f0xx_hal_pcd.c ****     __HAL_PCD_CLEAR_FLAG(hpcd, USB_ISTR_SOF); 
 390:Drivers/STM32F0xx_HAL_Driver/Src/stm32f0xx_hal_pcd.c ****     HAL_PCD_SOFCallback(hpcd);
 391:Drivers/STM32F0xx_HAL_Driver/Src/stm32f0xx_hal_pcd.c ****   }
 392:Drivers/STM32F0xx_HAL_Driver/Src/stm32f0xx_hal_pcd.c **** 
 393:Drivers/STM32F0xx_HAL_Driver/Src/stm32f0xx_hal_pcd.c ****   if (__HAL_PCD_GET_FLAG (hpcd, USB_ISTR_ESOF))
 394:Drivers/STM32F0xx_HAL_Driver/Src/stm32f0xx_hal_pcd.c ****   {
 395:Drivers/STM32F0xx_HAL_Driver/Src/stm32f0xx_hal_pcd.c ****     /* clear ESOF flag in ISTR */
 396:Drivers/STM32F0xx_HAL_Driver/Src/stm32f0xx_hal_pcd.c ****     __HAL_PCD_CLEAR_FLAG(hpcd, USB_ISTR_ESOF); 
 397:Drivers/STM32F0xx_HAL_Driver/Src/stm32f0xx_hal_pcd.c ****   }
 398:Drivers/STM32F0xx_HAL_Driver/Src/stm32f0xx_hal_pcd.c **** }
 399:Drivers/STM32F0xx_HAL_Driver/Src/stm32f0xx_hal_pcd.c **** 
 400:Drivers/STM32F0xx_HAL_Driver/Src/stm32f0xx_hal_pcd.c **** /**
 401:Drivers/STM32F0xx_HAL_Driver/Src/stm32f0xx_hal_pcd.c ****   * @brief  Data out stage callbacks
 402:Drivers/STM32F0xx_HAL_Driver/Src/stm32f0xx_hal_pcd.c ****   * @param  hpcd PCD handle
 403:Drivers/STM32F0xx_HAL_Driver/Src/stm32f0xx_hal_pcd.c ****   * @param  epnum endpoint number
 404:Drivers/STM32F0xx_HAL_Driver/Src/stm32f0xx_hal_pcd.c ****   * @retval None
 405:Drivers/STM32F0xx_HAL_Driver/Src/stm32f0xx_hal_pcd.c ****   */
 406:Drivers/STM32F0xx_HAL_Driver/Src/stm32f0xx_hal_pcd.c ****  __weak void HAL_PCD_DataOutStageCallback(PCD_HandleTypeDef *hpcd, uint8_t epnum)
 407:Drivers/STM32F0xx_HAL_Driver/Src/stm32f0xx_hal_pcd.c **** {
 463              		.loc 1 407 1 is_stmt 1 view -0
 464              		.cfi_startproc
 465              		@ args = 0, pretend = 0, frame = 0
 466              		@ frame_needed = 0, uses_anonymous_args = 0
 467              		@ link register save eliminated.
 408:Drivers/STM32F0xx_HAL_Driver/Src/stm32f0xx_hal_pcd.c ****   /* Prevent unused argument(s) compilation warning */
 409:Drivers/STM32F0xx_HAL_Driver/Src/stm32f0xx_hal_pcd.c ****   UNUSED(hpcd);
 468              		.loc 1 409 3 view .LVU120
 410:Drivers/STM32F0xx_HAL_Driver/Src/stm32f0xx_hal_pcd.c ****   UNUSED(epnum);
 469              		.loc 1 410 3 view .LVU121
 411:Drivers/STM32F0xx_HAL_Driver/Src/stm32f0xx_hal_pcd.c **** 
 412:Drivers/STM32F0xx_HAL_Driver/Src/stm32f0xx_hal_pcd.c ****   /* NOTE : This function Should not be modified, when the callback is needed,
 413:Drivers/STM32F0xx_HAL_Driver/Src/stm32f0xx_hal_pcd.c ****             the HAL_PCD_DataOutStageCallback could be implemented in the user file
 414:Drivers/STM32F0xx_HAL_Driver/Src/stm32f0xx_hal_pcd.c ****    */ 
 415:Drivers/STM32F0xx_HAL_Driver/Src/stm32f0xx_hal_pcd.c **** }
 470              		.loc 1 415 1 is_stmt 0 view .LVU122
 471              		@ sp needed
 472 0000 7047     		bx	lr
 473              		.cfi_endproc
 474              	.LFE44:
 476              		.section	.text.HAL_PCD_DataInStageCallback,"ax",%progbits
 477              		.align	1
 478              		.weak	HAL_PCD_DataInStageCallback
ARM GAS  /tmp/cclz3j42.s 			page 18


 479              		.syntax unified
 480              		.code	16
 481              		.thumb_func
 482              		.fpu softvfp
 484              	HAL_PCD_DataInStageCallback:
 485              	.LVL31:
 486              	.LFB45:
 416:Drivers/STM32F0xx_HAL_Driver/Src/stm32f0xx_hal_pcd.c **** 
 417:Drivers/STM32F0xx_HAL_Driver/Src/stm32f0xx_hal_pcd.c **** /**
 418:Drivers/STM32F0xx_HAL_Driver/Src/stm32f0xx_hal_pcd.c ****   * @brief  Data IN stage callbacks
 419:Drivers/STM32F0xx_HAL_Driver/Src/stm32f0xx_hal_pcd.c ****   * @param  hpcd PCD handle
 420:Drivers/STM32F0xx_HAL_Driver/Src/stm32f0xx_hal_pcd.c ****   * @param  epnum endpoint number
 421:Drivers/STM32F0xx_HAL_Driver/Src/stm32f0xx_hal_pcd.c ****   * @retval None
 422:Drivers/STM32F0xx_HAL_Driver/Src/stm32f0xx_hal_pcd.c ****   */
 423:Drivers/STM32F0xx_HAL_Driver/Src/stm32f0xx_hal_pcd.c ****  __weak void HAL_PCD_DataInStageCallback(PCD_HandleTypeDef *hpcd, uint8_t epnum)
 424:Drivers/STM32F0xx_HAL_Driver/Src/stm32f0xx_hal_pcd.c **** {
 487              		.loc 1 424 1 is_stmt 1 view -0
 488              		.cfi_startproc
 489              		@ args = 0, pretend = 0, frame = 0
 490              		@ frame_needed = 0, uses_anonymous_args = 0
 491              		@ link register save eliminated.
 425:Drivers/STM32F0xx_HAL_Driver/Src/stm32f0xx_hal_pcd.c ****   /* Prevent unused argument(s) compilation warning */
 426:Drivers/STM32F0xx_HAL_Driver/Src/stm32f0xx_hal_pcd.c ****   UNUSED(hpcd);
 492              		.loc 1 426 3 view .LVU124
 427:Drivers/STM32F0xx_HAL_Driver/Src/stm32f0xx_hal_pcd.c ****   UNUSED(epnum);
 493              		.loc 1 427 3 view .LVU125
 428:Drivers/STM32F0xx_HAL_Driver/Src/stm32f0xx_hal_pcd.c **** 
 429:Drivers/STM32F0xx_HAL_Driver/Src/stm32f0xx_hal_pcd.c ****   /* NOTE : This function Should not be modified, when the callback is needed,
 430:Drivers/STM32F0xx_HAL_Driver/Src/stm32f0xx_hal_pcd.c ****             the HAL_PCD_DataInStageCallback could be implemented in the user file
 431:Drivers/STM32F0xx_HAL_Driver/Src/stm32f0xx_hal_pcd.c ****    */ 
 432:Drivers/STM32F0xx_HAL_Driver/Src/stm32f0xx_hal_pcd.c **** }
 494              		.loc 1 432 1 is_stmt 0 view .LVU126
 495              		@ sp needed
 496 0000 7047     		bx	lr
 497              		.cfi_endproc
 498              	.LFE45:
 500              		.section	.text.HAL_PCD_SetupStageCallback,"ax",%progbits
 501              		.align	1
 502              		.weak	HAL_PCD_SetupStageCallback
 503              		.syntax unified
 504              		.code	16
 505              		.thumb_func
 506              		.fpu softvfp
 508              	HAL_PCD_SetupStageCallback:
 509              	.LVL32:
 510              	.LFB46:
 433:Drivers/STM32F0xx_HAL_Driver/Src/stm32f0xx_hal_pcd.c **** /**
 434:Drivers/STM32F0xx_HAL_Driver/Src/stm32f0xx_hal_pcd.c ****   * @brief  Setup stage callback
 435:Drivers/STM32F0xx_HAL_Driver/Src/stm32f0xx_hal_pcd.c ****   * @param  hpcd PCD handle
 436:Drivers/STM32F0xx_HAL_Driver/Src/stm32f0xx_hal_pcd.c ****   * @retval None
 437:Drivers/STM32F0xx_HAL_Driver/Src/stm32f0xx_hal_pcd.c ****   */
 438:Drivers/STM32F0xx_HAL_Driver/Src/stm32f0xx_hal_pcd.c ****  __weak void HAL_PCD_SetupStageCallback(PCD_HandleTypeDef *hpcd)
 439:Drivers/STM32F0xx_HAL_Driver/Src/stm32f0xx_hal_pcd.c **** {
 511              		.loc 1 439 1 is_stmt 1 view -0
 512              		.cfi_startproc
 513              		@ args = 0, pretend = 0, frame = 0
 514              		@ frame_needed = 0, uses_anonymous_args = 0
ARM GAS  /tmp/cclz3j42.s 			page 19


 515              		@ link register save eliminated.
 440:Drivers/STM32F0xx_HAL_Driver/Src/stm32f0xx_hal_pcd.c ****   /* Prevent unused argument(s) compilation warning */
 441:Drivers/STM32F0xx_HAL_Driver/Src/stm32f0xx_hal_pcd.c ****   UNUSED(hpcd);
 516              		.loc 1 441 3 view .LVU128
 442:Drivers/STM32F0xx_HAL_Driver/Src/stm32f0xx_hal_pcd.c **** 
 443:Drivers/STM32F0xx_HAL_Driver/Src/stm32f0xx_hal_pcd.c ****   /* NOTE : This function Should not be modified, when the callback is needed,
 444:Drivers/STM32F0xx_HAL_Driver/Src/stm32f0xx_hal_pcd.c ****             the HAL_PCD_SetupStageCallback could be implemented in the user file
 445:Drivers/STM32F0xx_HAL_Driver/Src/stm32f0xx_hal_pcd.c ****    */ 
 446:Drivers/STM32F0xx_HAL_Driver/Src/stm32f0xx_hal_pcd.c **** }
 517              		.loc 1 446 1 is_stmt 0 view .LVU129
 518              		@ sp needed
 519 0000 7047     		bx	lr
 520              		.cfi_endproc
 521              	.LFE46:
 523              		.section	.text.HAL_PCD_SOFCallback,"ax",%progbits
 524              		.align	1
 525              		.weak	HAL_PCD_SOFCallback
 526              		.syntax unified
 527              		.code	16
 528              		.thumb_func
 529              		.fpu softvfp
 531              	HAL_PCD_SOFCallback:
 532              	.LVL33:
 533              	.LFB47:
 447:Drivers/STM32F0xx_HAL_Driver/Src/stm32f0xx_hal_pcd.c **** 
 448:Drivers/STM32F0xx_HAL_Driver/Src/stm32f0xx_hal_pcd.c **** /**
 449:Drivers/STM32F0xx_HAL_Driver/Src/stm32f0xx_hal_pcd.c ****   * @brief  USB Start Of Frame callbacks
 450:Drivers/STM32F0xx_HAL_Driver/Src/stm32f0xx_hal_pcd.c ****   * @param  hpcd PCD handle
 451:Drivers/STM32F0xx_HAL_Driver/Src/stm32f0xx_hal_pcd.c ****   * @retval None
 452:Drivers/STM32F0xx_HAL_Driver/Src/stm32f0xx_hal_pcd.c ****   */
 453:Drivers/STM32F0xx_HAL_Driver/Src/stm32f0xx_hal_pcd.c ****  __weak void HAL_PCD_SOFCallback(PCD_HandleTypeDef *hpcd)
 454:Drivers/STM32F0xx_HAL_Driver/Src/stm32f0xx_hal_pcd.c **** {
 534              		.loc 1 454 1 is_stmt 1 view -0
 535              		.cfi_startproc
 536              		@ args = 0, pretend = 0, frame = 0
 537              		@ frame_needed = 0, uses_anonymous_args = 0
 538              		@ link register save eliminated.
 455:Drivers/STM32F0xx_HAL_Driver/Src/stm32f0xx_hal_pcd.c ****   /* Prevent unused argument(s) compilation warning */
 456:Drivers/STM32F0xx_HAL_Driver/Src/stm32f0xx_hal_pcd.c ****   UNUSED(hpcd);
 539              		.loc 1 456 3 view .LVU131
 457:Drivers/STM32F0xx_HAL_Driver/Src/stm32f0xx_hal_pcd.c **** 
 458:Drivers/STM32F0xx_HAL_Driver/Src/stm32f0xx_hal_pcd.c ****   /* NOTE : This function Should not be modified, when the callback is needed,
 459:Drivers/STM32F0xx_HAL_Driver/Src/stm32f0xx_hal_pcd.c ****             the HAL_PCD_SOFCallback could be implemented in the user file
 460:Drivers/STM32F0xx_HAL_Driver/Src/stm32f0xx_hal_pcd.c ****    */ 
 461:Drivers/STM32F0xx_HAL_Driver/Src/stm32f0xx_hal_pcd.c **** }
 540              		.loc 1 461 1 is_stmt 0 view .LVU132
 541              		@ sp needed
 542 0000 7047     		bx	lr
 543              		.cfi_endproc
 544              	.LFE47:
 546              		.section	.text.HAL_PCD_ResetCallback,"ax",%progbits
 547              		.align	1
 548              		.weak	HAL_PCD_ResetCallback
 549              		.syntax unified
 550              		.code	16
 551              		.thumb_func
 552              		.fpu softvfp
ARM GAS  /tmp/cclz3j42.s 			page 20


 554              	HAL_PCD_ResetCallback:
 555              	.LVL34:
 556              	.LFB48:
 462:Drivers/STM32F0xx_HAL_Driver/Src/stm32f0xx_hal_pcd.c **** 
 463:Drivers/STM32F0xx_HAL_Driver/Src/stm32f0xx_hal_pcd.c **** /**
 464:Drivers/STM32F0xx_HAL_Driver/Src/stm32f0xx_hal_pcd.c ****   * @brief  USB Reset callbacks
 465:Drivers/STM32F0xx_HAL_Driver/Src/stm32f0xx_hal_pcd.c ****   * @param  hpcd PCD handle
 466:Drivers/STM32F0xx_HAL_Driver/Src/stm32f0xx_hal_pcd.c ****   * @retval None
 467:Drivers/STM32F0xx_HAL_Driver/Src/stm32f0xx_hal_pcd.c ****   */
 468:Drivers/STM32F0xx_HAL_Driver/Src/stm32f0xx_hal_pcd.c ****  __weak void HAL_PCD_ResetCallback(PCD_HandleTypeDef *hpcd)
 469:Drivers/STM32F0xx_HAL_Driver/Src/stm32f0xx_hal_pcd.c **** {
 557              		.loc 1 469 1 is_stmt 1 view -0
 558              		.cfi_startproc
 559              		@ args = 0, pretend = 0, frame = 0
 560              		@ frame_needed = 0, uses_anonymous_args = 0
 561              		@ link register save eliminated.
 470:Drivers/STM32F0xx_HAL_Driver/Src/stm32f0xx_hal_pcd.c ****   /* Prevent unused argument(s) compilation warning */
 471:Drivers/STM32F0xx_HAL_Driver/Src/stm32f0xx_hal_pcd.c ****   UNUSED(hpcd);
 562              		.loc 1 471 3 view .LVU134
 472:Drivers/STM32F0xx_HAL_Driver/Src/stm32f0xx_hal_pcd.c **** 
 473:Drivers/STM32F0xx_HAL_Driver/Src/stm32f0xx_hal_pcd.c ****   /* NOTE : This function Should not be modified, when the callback is needed,
 474:Drivers/STM32F0xx_HAL_Driver/Src/stm32f0xx_hal_pcd.c ****             the HAL_PCD_ResetCallback could be implemented in the user file
 475:Drivers/STM32F0xx_HAL_Driver/Src/stm32f0xx_hal_pcd.c ****    */ 
 476:Drivers/STM32F0xx_HAL_Driver/Src/stm32f0xx_hal_pcd.c **** }
 563              		.loc 1 476 1 is_stmt 0 view .LVU135
 564              		@ sp needed
 565 0000 7047     		bx	lr
 566              		.cfi_endproc
 567              	.LFE48:
 569              		.section	.text.HAL_PCD_SuspendCallback,"ax",%progbits
 570              		.align	1
 571              		.weak	HAL_PCD_SuspendCallback
 572              		.syntax unified
 573              		.code	16
 574              		.thumb_func
 575              		.fpu softvfp
 577              	HAL_PCD_SuspendCallback:
 578              	.LVL35:
 579              	.LFB49:
 477:Drivers/STM32F0xx_HAL_Driver/Src/stm32f0xx_hal_pcd.c **** 
 478:Drivers/STM32F0xx_HAL_Driver/Src/stm32f0xx_hal_pcd.c **** /**
 479:Drivers/STM32F0xx_HAL_Driver/Src/stm32f0xx_hal_pcd.c ****   * @brief  Suspend event callbacks
 480:Drivers/STM32F0xx_HAL_Driver/Src/stm32f0xx_hal_pcd.c ****   * @param  hpcd PCD handle
 481:Drivers/STM32F0xx_HAL_Driver/Src/stm32f0xx_hal_pcd.c ****   * @retval None
 482:Drivers/STM32F0xx_HAL_Driver/Src/stm32f0xx_hal_pcd.c ****   */
 483:Drivers/STM32F0xx_HAL_Driver/Src/stm32f0xx_hal_pcd.c ****  __weak void HAL_PCD_SuspendCallback(PCD_HandleTypeDef *hpcd)
 484:Drivers/STM32F0xx_HAL_Driver/Src/stm32f0xx_hal_pcd.c **** {
 580              		.loc 1 484 1 is_stmt 1 view -0
 581              		.cfi_startproc
 582              		@ args = 0, pretend = 0, frame = 0
 583              		@ frame_needed = 0, uses_anonymous_args = 0
 584              		@ link register save eliminated.
 485:Drivers/STM32F0xx_HAL_Driver/Src/stm32f0xx_hal_pcd.c ****   /* Prevent unused argument(s) compilation warning */
 486:Drivers/STM32F0xx_HAL_Driver/Src/stm32f0xx_hal_pcd.c ****   UNUSED(hpcd);
 585              		.loc 1 486 3 view .LVU137
 487:Drivers/STM32F0xx_HAL_Driver/Src/stm32f0xx_hal_pcd.c **** 
 488:Drivers/STM32F0xx_HAL_Driver/Src/stm32f0xx_hal_pcd.c ****   /* NOTE : This function Should not be modified, when the callback is needed,
ARM GAS  /tmp/cclz3j42.s 			page 21


 489:Drivers/STM32F0xx_HAL_Driver/Src/stm32f0xx_hal_pcd.c ****             the HAL_PCD_SuspendCallback could be implemented in the user file
 490:Drivers/STM32F0xx_HAL_Driver/Src/stm32f0xx_hal_pcd.c ****    */ 
 491:Drivers/STM32F0xx_HAL_Driver/Src/stm32f0xx_hal_pcd.c **** }
 586              		.loc 1 491 1 is_stmt 0 view .LVU138
 587              		@ sp needed
 588 0000 7047     		bx	lr
 589              		.cfi_endproc
 590              	.LFE49:
 592              		.section	.text.HAL_PCD_ResumeCallback,"ax",%progbits
 593              		.align	1
 594              		.weak	HAL_PCD_ResumeCallback
 595              		.syntax unified
 596              		.code	16
 597              		.thumb_func
 598              		.fpu softvfp
 600              	HAL_PCD_ResumeCallback:
 601              	.LVL36:
 602              	.LFB50:
 492:Drivers/STM32F0xx_HAL_Driver/Src/stm32f0xx_hal_pcd.c **** 
 493:Drivers/STM32F0xx_HAL_Driver/Src/stm32f0xx_hal_pcd.c **** /**
 494:Drivers/STM32F0xx_HAL_Driver/Src/stm32f0xx_hal_pcd.c ****   * @brief  Resume event callbacks
 495:Drivers/STM32F0xx_HAL_Driver/Src/stm32f0xx_hal_pcd.c ****   * @param  hpcd PCD handle
 496:Drivers/STM32F0xx_HAL_Driver/Src/stm32f0xx_hal_pcd.c ****   * @retval None
 497:Drivers/STM32F0xx_HAL_Driver/Src/stm32f0xx_hal_pcd.c ****   */
 498:Drivers/STM32F0xx_HAL_Driver/Src/stm32f0xx_hal_pcd.c ****  __weak void HAL_PCD_ResumeCallback(PCD_HandleTypeDef *hpcd)
 499:Drivers/STM32F0xx_HAL_Driver/Src/stm32f0xx_hal_pcd.c **** {
 603              		.loc 1 499 1 is_stmt 1 view -0
 604              		.cfi_startproc
 605              		@ args = 0, pretend = 0, frame = 0
 606              		@ frame_needed = 0, uses_anonymous_args = 0
 607              		@ link register save eliminated.
 500:Drivers/STM32F0xx_HAL_Driver/Src/stm32f0xx_hal_pcd.c ****   /* Prevent unused argument(s) compilation warning */
 501:Drivers/STM32F0xx_HAL_Driver/Src/stm32f0xx_hal_pcd.c ****   UNUSED(hpcd);
 608              		.loc 1 501 3 view .LVU140
 502:Drivers/STM32F0xx_HAL_Driver/Src/stm32f0xx_hal_pcd.c **** 
 503:Drivers/STM32F0xx_HAL_Driver/Src/stm32f0xx_hal_pcd.c ****   /* NOTE : This function Should not be modified, when the callback is needed,
 504:Drivers/STM32F0xx_HAL_Driver/Src/stm32f0xx_hal_pcd.c ****             the HAL_PCD_ResumeCallback could be implemented in the user file
 505:Drivers/STM32F0xx_HAL_Driver/Src/stm32f0xx_hal_pcd.c ****    */ 
 506:Drivers/STM32F0xx_HAL_Driver/Src/stm32f0xx_hal_pcd.c **** }
 609              		.loc 1 506 1 is_stmt 0 view .LVU141
 610              		@ sp needed
 611 0000 7047     		bx	lr
 612              		.cfi_endproc
 613              	.LFE50:
 615              		.section	.text.HAL_PCD_ISOOUTIncompleteCallback,"ax",%progbits
 616              		.align	1
 617              		.weak	HAL_PCD_ISOOUTIncompleteCallback
 618              		.syntax unified
 619              		.code	16
 620              		.thumb_func
 621              		.fpu softvfp
 623              	HAL_PCD_ISOOUTIncompleteCallback:
 624              	.LVL37:
 625              	.LFB51:
 507:Drivers/STM32F0xx_HAL_Driver/Src/stm32f0xx_hal_pcd.c **** 
 508:Drivers/STM32F0xx_HAL_Driver/Src/stm32f0xx_hal_pcd.c **** /**
 509:Drivers/STM32F0xx_HAL_Driver/Src/stm32f0xx_hal_pcd.c ****   * @brief  Incomplete ISO OUT callbacks
ARM GAS  /tmp/cclz3j42.s 			page 22


 510:Drivers/STM32F0xx_HAL_Driver/Src/stm32f0xx_hal_pcd.c ****   * @param  hpcd PCD handle
 511:Drivers/STM32F0xx_HAL_Driver/Src/stm32f0xx_hal_pcd.c ****   * @param  epnum endpoint number
 512:Drivers/STM32F0xx_HAL_Driver/Src/stm32f0xx_hal_pcd.c ****   * @retval None
 513:Drivers/STM32F0xx_HAL_Driver/Src/stm32f0xx_hal_pcd.c ****   */
 514:Drivers/STM32F0xx_HAL_Driver/Src/stm32f0xx_hal_pcd.c ****  __weak void HAL_PCD_ISOOUTIncompleteCallback(PCD_HandleTypeDef *hpcd, uint8_t epnum)
 515:Drivers/STM32F0xx_HAL_Driver/Src/stm32f0xx_hal_pcd.c **** {
 626              		.loc 1 515 1 is_stmt 1 view -0
 627              		.cfi_startproc
 628              		@ args = 0, pretend = 0, frame = 0
 629              		@ frame_needed = 0, uses_anonymous_args = 0
 630              		@ link register save eliminated.
 516:Drivers/STM32F0xx_HAL_Driver/Src/stm32f0xx_hal_pcd.c ****   /* Prevent unused argument(s) compilation warning */
 517:Drivers/STM32F0xx_HAL_Driver/Src/stm32f0xx_hal_pcd.c ****   UNUSED(hpcd);
 631              		.loc 1 517 3 view .LVU143
 518:Drivers/STM32F0xx_HAL_Driver/Src/stm32f0xx_hal_pcd.c ****   UNUSED(epnum);
 632              		.loc 1 518 3 view .LVU144
 519:Drivers/STM32F0xx_HAL_Driver/Src/stm32f0xx_hal_pcd.c **** 
 520:Drivers/STM32F0xx_HAL_Driver/Src/stm32f0xx_hal_pcd.c ****   /* NOTE : This function Should not be modified, when the callback is needed,
 521:Drivers/STM32F0xx_HAL_Driver/Src/stm32f0xx_hal_pcd.c ****             the HAL_PCD_ISOOUTIncompleteCallback could be implemented in the user file
 522:Drivers/STM32F0xx_HAL_Driver/Src/stm32f0xx_hal_pcd.c ****    */ 
 523:Drivers/STM32F0xx_HAL_Driver/Src/stm32f0xx_hal_pcd.c **** }
 633              		.loc 1 523 1 is_stmt 0 view .LVU145
 634              		@ sp needed
 635 0000 7047     		bx	lr
 636              		.cfi_endproc
 637              	.LFE51:
 639              		.section	.text.HAL_PCD_ISOINIncompleteCallback,"ax",%progbits
 640              		.align	1
 641              		.weak	HAL_PCD_ISOINIncompleteCallback
 642              		.syntax unified
 643              		.code	16
 644              		.thumb_func
 645              		.fpu softvfp
 647              	HAL_PCD_ISOINIncompleteCallback:
 648              	.LVL38:
 649              	.LFB52:
 524:Drivers/STM32F0xx_HAL_Driver/Src/stm32f0xx_hal_pcd.c **** 
 525:Drivers/STM32F0xx_HAL_Driver/Src/stm32f0xx_hal_pcd.c **** /**
 526:Drivers/STM32F0xx_HAL_Driver/Src/stm32f0xx_hal_pcd.c ****   * @brief  Incomplete ISO IN  callbacks
 527:Drivers/STM32F0xx_HAL_Driver/Src/stm32f0xx_hal_pcd.c ****   * @param  hpcd PCD handle
 528:Drivers/STM32F0xx_HAL_Driver/Src/stm32f0xx_hal_pcd.c ****   * @param  epnum endpoint number
 529:Drivers/STM32F0xx_HAL_Driver/Src/stm32f0xx_hal_pcd.c ****   * @retval None
 530:Drivers/STM32F0xx_HAL_Driver/Src/stm32f0xx_hal_pcd.c ****   */
 531:Drivers/STM32F0xx_HAL_Driver/Src/stm32f0xx_hal_pcd.c ****  __weak void HAL_PCD_ISOINIncompleteCallback(PCD_HandleTypeDef *hpcd, uint8_t epnum)
 532:Drivers/STM32F0xx_HAL_Driver/Src/stm32f0xx_hal_pcd.c **** {
 650              		.loc 1 532 1 is_stmt 1 view -0
 651              		.cfi_startproc
 652              		@ args = 0, pretend = 0, frame = 0
 653              		@ frame_needed = 0, uses_anonymous_args = 0
 654              		@ link register save eliminated.
 533:Drivers/STM32F0xx_HAL_Driver/Src/stm32f0xx_hal_pcd.c ****   /* Prevent unused argument(s) compilation warning */
 534:Drivers/STM32F0xx_HAL_Driver/Src/stm32f0xx_hal_pcd.c ****   UNUSED(hpcd);
 655              		.loc 1 534 3 view .LVU147
 535:Drivers/STM32F0xx_HAL_Driver/Src/stm32f0xx_hal_pcd.c ****   UNUSED(epnum);
 656              		.loc 1 535 3 view .LVU148
 536:Drivers/STM32F0xx_HAL_Driver/Src/stm32f0xx_hal_pcd.c **** 
 537:Drivers/STM32F0xx_HAL_Driver/Src/stm32f0xx_hal_pcd.c ****   /* NOTE : This function Should not be modified, when the callback is needed,
ARM GAS  /tmp/cclz3j42.s 			page 23


 538:Drivers/STM32F0xx_HAL_Driver/Src/stm32f0xx_hal_pcd.c ****             the HAL_PCD_ISOINIncompleteCallback could be implemented in the user file
 539:Drivers/STM32F0xx_HAL_Driver/Src/stm32f0xx_hal_pcd.c ****    */ 
 540:Drivers/STM32F0xx_HAL_Driver/Src/stm32f0xx_hal_pcd.c **** }
 657              		.loc 1 540 1 is_stmt 0 view .LVU149
 658              		@ sp needed
 659 0000 7047     		bx	lr
 660              		.cfi_endproc
 661              	.LFE52:
 663              		.section	.text.HAL_PCD_ConnectCallback,"ax",%progbits
 664              		.align	1
 665              		.weak	HAL_PCD_ConnectCallback
 666              		.syntax unified
 667              		.code	16
 668              		.thumb_func
 669              		.fpu softvfp
 671              	HAL_PCD_ConnectCallback:
 672              	.LVL39:
 673              	.LFB53:
 541:Drivers/STM32F0xx_HAL_Driver/Src/stm32f0xx_hal_pcd.c **** 
 542:Drivers/STM32F0xx_HAL_Driver/Src/stm32f0xx_hal_pcd.c **** /**
 543:Drivers/STM32F0xx_HAL_Driver/Src/stm32f0xx_hal_pcd.c ****   * @brief  Connection event callbacks
 544:Drivers/STM32F0xx_HAL_Driver/Src/stm32f0xx_hal_pcd.c ****   * @param  hpcd PCD handle
 545:Drivers/STM32F0xx_HAL_Driver/Src/stm32f0xx_hal_pcd.c ****   * @retval None
 546:Drivers/STM32F0xx_HAL_Driver/Src/stm32f0xx_hal_pcd.c ****   */
 547:Drivers/STM32F0xx_HAL_Driver/Src/stm32f0xx_hal_pcd.c ****  __weak void HAL_PCD_ConnectCallback(PCD_HandleTypeDef *hpcd)
 548:Drivers/STM32F0xx_HAL_Driver/Src/stm32f0xx_hal_pcd.c **** {
 674              		.loc 1 548 1 is_stmt 1 view -0
 675              		.cfi_startproc
 676              		@ args = 0, pretend = 0, frame = 0
 677              		@ frame_needed = 0, uses_anonymous_args = 0
 678              		@ link register save eliminated.
 549:Drivers/STM32F0xx_HAL_Driver/Src/stm32f0xx_hal_pcd.c ****   /* Prevent unused argument(s) compilation warning */
 550:Drivers/STM32F0xx_HAL_Driver/Src/stm32f0xx_hal_pcd.c ****   UNUSED(hpcd);
 679              		.loc 1 550 3 view .LVU151
 551:Drivers/STM32F0xx_HAL_Driver/Src/stm32f0xx_hal_pcd.c **** 
 552:Drivers/STM32F0xx_HAL_Driver/Src/stm32f0xx_hal_pcd.c ****   /* NOTE : This function Should not be modified, when the callback is needed,
 553:Drivers/STM32F0xx_HAL_Driver/Src/stm32f0xx_hal_pcd.c ****             the HAL_PCD_ConnectCallback could be implemented in the user file
 554:Drivers/STM32F0xx_HAL_Driver/Src/stm32f0xx_hal_pcd.c ****    */ 
 555:Drivers/STM32F0xx_HAL_Driver/Src/stm32f0xx_hal_pcd.c **** }
 680              		.loc 1 555 1 is_stmt 0 view .LVU152
 681              		@ sp needed
 682 0000 7047     		bx	lr
 683              		.cfi_endproc
 684              	.LFE53:
 686              		.section	.text.HAL_PCD_DisconnectCallback,"ax",%progbits
 687              		.align	1
 688              		.weak	HAL_PCD_DisconnectCallback
 689              		.syntax unified
 690              		.code	16
 691              		.thumb_func
 692              		.fpu softvfp
 694              	HAL_PCD_DisconnectCallback:
 695              	.LVL40:
 696              	.LFB54:
 556:Drivers/STM32F0xx_HAL_Driver/Src/stm32f0xx_hal_pcd.c **** 
 557:Drivers/STM32F0xx_HAL_Driver/Src/stm32f0xx_hal_pcd.c **** /**
 558:Drivers/STM32F0xx_HAL_Driver/Src/stm32f0xx_hal_pcd.c ****   * @brief  Disconnection event callbacks
ARM GAS  /tmp/cclz3j42.s 			page 24


 559:Drivers/STM32F0xx_HAL_Driver/Src/stm32f0xx_hal_pcd.c ****   * @param  hpcd PCD handle
 560:Drivers/STM32F0xx_HAL_Driver/Src/stm32f0xx_hal_pcd.c ****   * @retval None
 561:Drivers/STM32F0xx_HAL_Driver/Src/stm32f0xx_hal_pcd.c ****   */
 562:Drivers/STM32F0xx_HAL_Driver/Src/stm32f0xx_hal_pcd.c ****  __weak void HAL_PCD_DisconnectCallback(PCD_HandleTypeDef *hpcd)
 563:Drivers/STM32F0xx_HAL_Driver/Src/stm32f0xx_hal_pcd.c **** {
 697              		.loc 1 563 1 is_stmt 1 view -0
 698              		.cfi_startproc
 699              		@ args = 0, pretend = 0, frame = 0
 700              		@ frame_needed = 0, uses_anonymous_args = 0
 701              		@ link register save eliminated.
 564:Drivers/STM32F0xx_HAL_Driver/Src/stm32f0xx_hal_pcd.c ****   /* Prevent unused argument(s) compilation warning */
 565:Drivers/STM32F0xx_HAL_Driver/Src/stm32f0xx_hal_pcd.c ****   UNUSED(hpcd);
 702              		.loc 1 565 3 view .LVU154
 566:Drivers/STM32F0xx_HAL_Driver/Src/stm32f0xx_hal_pcd.c **** 
 567:Drivers/STM32F0xx_HAL_Driver/Src/stm32f0xx_hal_pcd.c ****   /* NOTE : This function Should not be modified, when the callback is needed,
 568:Drivers/STM32F0xx_HAL_Driver/Src/stm32f0xx_hal_pcd.c ****             the HAL_PCD_DisconnectCallback could be implemented in the user file
 569:Drivers/STM32F0xx_HAL_Driver/Src/stm32f0xx_hal_pcd.c ****    */ 
 570:Drivers/STM32F0xx_HAL_Driver/Src/stm32f0xx_hal_pcd.c **** }
 703              		.loc 1 570 1 is_stmt 0 view .LVU155
 704              		@ sp needed
 705 0000 7047     		bx	lr
 706              		.cfi_endproc
 707              	.LFE54:
 709              		.section	.text.HAL_PCD_DevConnect,"ax",%progbits
 710              		.align	1
 711              		.global	HAL_PCD_DevConnect
 712              		.syntax unified
 713              		.code	16
 714              		.thumb_func
 715              		.fpu softvfp
 717              	HAL_PCD_DevConnect:
 718              	.LVL41:
 719              	.LFB55:
 571:Drivers/STM32F0xx_HAL_Driver/Src/stm32f0xx_hal_pcd.c **** /**
 572:Drivers/STM32F0xx_HAL_Driver/Src/stm32f0xx_hal_pcd.c ****   * @}
 573:Drivers/STM32F0xx_HAL_Driver/Src/stm32f0xx_hal_pcd.c ****   */
 574:Drivers/STM32F0xx_HAL_Driver/Src/stm32f0xx_hal_pcd.c ****     
 575:Drivers/STM32F0xx_HAL_Driver/Src/stm32f0xx_hal_pcd.c **** /** @defgroup PCD_Exported_Functions_Group3 Peripheral Control functions 
 576:Drivers/STM32F0xx_HAL_Driver/Src/stm32f0xx_hal_pcd.c ****  *  @brief   management functions 
 577:Drivers/STM32F0xx_HAL_Driver/Src/stm32f0xx_hal_pcd.c ****  *
 578:Drivers/STM32F0xx_HAL_Driver/Src/stm32f0xx_hal_pcd.c **** @verbatim   
 579:Drivers/STM32F0xx_HAL_Driver/Src/stm32f0xx_hal_pcd.c ****  ===============================================================================
 580:Drivers/STM32F0xx_HAL_Driver/Src/stm32f0xx_hal_pcd.c ****                       ##### Peripheral Control functions #####
 581:Drivers/STM32F0xx_HAL_Driver/Src/stm32f0xx_hal_pcd.c ****  ===============================================================================  
 582:Drivers/STM32F0xx_HAL_Driver/Src/stm32f0xx_hal_pcd.c ****     [..]
 583:Drivers/STM32F0xx_HAL_Driver/Src/stm32f0xx_hal_pcd.c ****     This subsection provides a set of functions allowing to control the PCD data 
 584:Drivers/STM32F0xx_HAL_Driver/Src/stm32f0xx_hal_pcd.c ****     transfers.
 585:Drivers/STM32F0xx_HAL_Driver/Src/stm32f0xx_hal_pcd.c **** 
 586:Drivers/STM32F0xx_HAL_Driver/Src/stm32f0xx_hal_pcd.c **** @endverbatim
 587:Drivers/STM32F0xx_HAL_Driver/Src/stm32f0xx_hal_pcd.c ****   * @{
 588:Drivers/STM32F0xx_HAL_Driver/Src/stm32f0xx_hal_pcd.c ****   */
 589:Drivers/STM32F0xx_HAL_Driver/Src/stm32f0xx_hal_pcd.c **** 
 590:Drivers/STM32F0xx_HAL_Driver/Src/stm32f0xx_hal_pcd.c **** /**
 591:Drivers/STM32F0xx_HAL_Driver/Src/stm32f0xx_hal_pcd.c ****   * @brief  Connect the USB device 
 592:Drivers/STM32F0xx_HAL_Driver/Src/stm32f0xx_hal_pcd.c ****   * @param  hpcd PCD handle
 593:Drivers/STM32F0xx_HAL_Driver/Src/stm32f0xx_hal_pcd.c ****   * @retval HAL status
 594:Drivers/STM32F0xx_HAL_Driver/Src/stm32f0xx_hal_pcd.c ****   */
ARM GAS  /tmp/cclz3j42.s 			page 25


 595:Drivers/STM32F0xx_HAL_Driver/Src/stm32f0xx_hal_pcd.c **** HAL_StatusTypeDef HAL_PCD_DevConnect(PCD_HandleTypeDef *hpcd)
 596:Drivers/STM32F0xx_HAL_Driver/Src/stm32f0xx_hal_pcd.c **** {
 720              		.loc 1 596 1 is_stmt 1 view -0
 721              		.cfi_startproc
 722              		@ args = 0, pretend = 0, frame = 0
 723              		@ frame_needed = 0, uses_anonymous_args = 0
 724              		.loc 1 596 1 is_stmt 0 view .LVU157
 725 0000 30B5     		push	{r4, r5, lr}
 726              	.LCFI3:
 727              		.cfi_def_cfa_offset 12
 728              		.cfi_offset 4, -12
 729              		.cfi_offset 5, -8
 730              		.cfi_offset 14, -4
 597:Drivers/STM32F0xx_HAL_Driver/Src/stm32f0xx_hal_pcd.c ****   __HAL_LOCK(hpcd); 
 731              		.loc 1 597 3 is_stmt 1 view .LVU158
 732              		.loc 1 597 3 view .LVU159
 733 0002 F423     		movs	r3, #244
 734 0004 5B00     		lsls	r3, r3, #1
 735 0006 C35C     		ldrb	r3, [r0, r3]
 736 0008 012B     		cmp	r3, #1
 737 000a 0ED0     		beq	.L38
 738              		.loc 1 597 3 discriminator 2 view .LVU160
 739 000c F422     		movs	r2, #244
 740 000e 5200     		lsls	r2, r2, #1
 741 0010 0123     		movs	r3, #1
 742 0012 8354     		strb	r3, [r0, r2]
 598:Drivers/STM32F0xx_HAL_Driver/Src/stm32f0xx_hal_pcd.c ****   
 599:Drivers/STM32F0xx_HAL_Driver/Src/stm32f0xx_hal_pcd.c ****   /* Enabling DP Pull-Down bit to Connect internal pull-up on USB DP line */
 600:Drivers/STM32F0xx_HAL_Driver/Src/stm32f0xx_hal_pcd.c ****   hpcd->Instance->BCDR |= USB_BCDR_DPPU;
 743              		.loc 1 600 3 discriminator 2 view .LVU161
 744              		.loc 1 600 7 is_stmt 0 discriminator 2 view .LVU162
 745 0014 0468     		ldr	r4, [r0]
 746              		.loc 1 600 24 discriminator 2 view .LVU163
 747 0016 5821     		movs	r1, #88
 748 0018 635A     		ldrh	r3, [r4, r1]
 749 001a 054D     		ldr	r5, .L39
 750 001c 2B43     		orrs	r3, r5
 751 001e 9BB2     		uxth	r3, r3
 752 0020 6352     		strh	r3, [r4, r1]
 601:Drivers/STM32F0xx_HAL_Driver/Src/stm32f0xx_hal_pcd.c ****   
 602:Drivers/STM32F0xx_HAL_Driver/Src/stm32f0xx_hal_pcd.c ****   __HAL_UNLOCK(hpcd); 
 753              		.loc 1 602 3 is_stmt 1 discriminator 2 view .LVU164
 754              		.loc 1 602 3 discriminator 2 view .LVU165
 755 0022 0023     		movs	r3, #0
 756 0024 8354     		strb	r3, [r0, r2]
 603:Drivers/STM32F0xx_HAL_Driver/Src/stm32f0xx_hal_pcd.c ****   return HAL_OK;
 757              		.loc 1 603 3 discriminator 2 view .LVU166
 758              		.loc 1 603 10 is_stmt 0 discriminator 2 view .LVU167
 759 0026 0020     		movs	r0, #0
 760              	.LVL42:
 761              	.L37:
 604:Drivers/STM32F0xx_HAL_Driver/Src/stm32f0xx_hal_pcd.c **** }
 762              		.loc 1 604 1 view .LVU168
 763              		@ sp needed
 764 0028 30BD     		pop	{r4, r5, pc}
 765              	.LVL43:
 766              	.L38:
ARM GAS  /tmp/cclz3j42.s 			page 26


 597:Drivers/STM32F0xx_HAL_Driver/Src/stm32f0xx_hal_pcd.c ****   
 767              		.loc 1 597 3 view .LVU169
 768 002a 0220     		movs	r0, #2
 769              	.LVL44:
 597:Drivers/STM32F0xx_HAL_Driver/Src/stm32f0xx_hal_pcd.c ****   
 770              		.loc 1 597 3 view .LVU170
 771 002c FCE7     		b	.L37
 772              	.L40:
 773 002e C046     		.align	2
 774              	.L39:
 775 0030 0080FFFF 		.word	-32768
 776              		.cfi_endproc
 777              	.LFE55:
 779              		.section	.text.HAL_PCD_DevDisconnect,"ax",%progbits
 780              		.align	1
 781              		.global	HAL_PCD_DevDisconnect
 782              		.syntax unified
 783              		.code	16
 784              		.thumb_func
 785              		.fpu softvfp
 787              	HAL_PCD_DevDisconnect:
 788              	.LVL45:
 789              	.LFB56:
 605:Drivers/STM32F0xx_HAL_Driver/Src/stm32f0xx_hal_pcd.c **** 
 606:Drivers/STM32F0xx_HAL_Driver/Src/stm32f0xx_hal_pcd.c **** /**
 607:Drivers/STM32F0xx_HAL_Driver/Src/stm32f0xx_hal_pcd.c ****   * @brief  Disconnect the USB device 
 608:Drivers/STM32F0xx_HAL_Driver/Src/stm32f0xx_hal_pcd.c ****   * @param  hpcd PCD handle
 609:Drivers/STM32F0xx_HAL_Driver/Src/stm32f0xx_hal_pcd.c ****   * @retval HAL status
 610:Drivers/STM32F0xx_HAL_Driver/Src/stm32f0xx_hal_pcd.c ****   */
 611:Drivers/STM32F0xx_HAL_Driver/Src/stm32f0xx_hal_pcd.c **** HAL_StatusTypeDef HAL_PCD_DevDisconnect(PCD_HandleTypeDef *hpcd)
 612:Drivers/STM32F0xx_HAL_Driver/Src/stm32f0xx_hal_pcd.c **** {
 790              		.loc 1 612 1 is_stmt 1 view -0
 791              		.cfi_startproc
 792              		@ args = 0, pretend = 0, frame = 0
 793              		@ frame_needed = 0, uses_anonymous_args = 0
 794              		.loc 1 612 1 is_stmt 0 view .LVU172
 795 0000 10B5     		push	{r4, lr}
 796              	.LCFI4:
 797              		.cfi_def_cfa_offset 8
 798              		.cfi_offset 4, -8
 799              		.cfi_offset 14, -4
 613:Drivers/STM32F0xx_HAL_Driver/Src/stm32f0xx_hal_pcd.c ****   __HAL_LOCK(hpcd); 
 800              		.loc 1 613 3 is_stmt 1 view .LVU173
 801              		.loc 1 613 3 view .LVU174
 802 0002 F423     		movs	r3, #244
 803 0004 5B00     		lsls	r3, r3, #1
 804 0006 C35C     		ldrb	r3, [r0, r3]
 805 0008 012B     		cmp	r3, #1
 806 000a 0DD0     		beq	.L43
 807              		.loc 1 613 3 discriminator 2 view .LVU175
 808 000c F422     		movs	r2, #244
 809 000e 5200     		lsls	r2, r2, #1
 810 0010 0123     		movs	r3, #1
 811 0012 8354     		strb	r3, [r0, r2]
 614:Drivers/STM32F0xx_HAL_Driver/Src/stm32f0xx_hal_pcd.c ****   
 615:Drivers/STM32F0xx_HAL_Driver/Src/stm32f0xx_hal_pcd.c ****   /* Disable DP Pull-Down bit*/
 616:Drivers/STM32F0xx_HAL_Driver/Src/stm32f0xx_hal_pcd.c ****    hpcd->Instance->BCDR &= (uint16_t)(~(USB_BCDR_DPPU));
ARM GAS  /tmp/cclz3j42.s 			page 27


 812              		.loc 1 616 4 discriminator 2 view .LVU176
 813              		.loc 1 616 8 is_stmt 0 discriminator 2 view .LVU177
 814 0014 0468     		ldr	r4, [r0]
 815              		.loc 1 616 25 discriminator 2 view .LVU178
 816 0016 5821     		movs	r1, #88
 817 0018 635A     		ldrh	r3, [r4, r1]
 818 001a 5B04     		lsls	r3, r3, #17
 819 001c 5B0C     		lsrs	r3, r3, #17
 820 001e 6352     		strh	r3, [r4, r1]
 617:Drivers/STM32F0xx_HAL_Driver/Src/stm32f0xx_hal_pcd.c ****   
 618:Drivers/STM32F0xx_HAL_Driver/Src/stm32f0xx_hal_pcd.c ****   __HAL_UNLOCK(hpcd); 
 821              		.loc 1 618 3 is_stmt 1 discriminator 2 view .LVU179
 822              		.loc 1 618 3 discriminator 2 view .LVU180
 823 0020 0023     		movs	r3, #0
 824 0022 8354     		strb	r3, [r0, r2]
 619:Drivers/STM32F0xx_HAL_Driver/Src/stm32f0xx_hal_pcd.c ****   return HAL_OK;
 825              		.loc 1 619 3 discriminator 2 view .LVU181
 826              		.loc 1 619 10 is_stmt 0 discriminator 2 view .LVU182
 827 0024 0020     		movs	r0, #0
 828              	.LVL46:
 829              	.L42:
 620:Drivers/STM32F0xx_HAL_Driver/Src/stm32f0xx_hal_pcd.c **** }
 830              		.loc 1 620 1 view .LVU183
 831              		@ sp needed
 832 0026 10BD     		pop	{r4, pc}
 833              	.LVL47:
 834              	.L43:
 613:Drivers/STM32F0xx_HAL_Driver/Src/stm32f0xx_hal_pcd.c ****   
 835              		.loc 1 613 3 view .LVU184
 836 0028 0220     		movs	r0, #2
 837              	.LVL48:
 613:Drivers/STM32F0xx_HAL_Driver/Src/stm32f0xx_hal_pcd.c ****   
 838              		.loc 1 613 3 view .LVU185
 839 002a FCE7     		b	.L42
 840              		.cfi_endproc
 841              	.LFE56:
 843              		.section	.text.HAL_PCD_SetAddress,"ax",%progbits
 844              		.align	1
 845              		.global	HAL_PCD_SetAddress
 846              		.syntax unified
 847              		.code	16
 848              		.thumb_func
 849              		.fpu softvfp
 851              	HAL_PCD_SetAddress:
 852              	.LVL49:
 853              	.LFB57:
 621:Drivers/STM32F0xx_HAL_Driver/Src/stm32f0xx_hal_pcd.c **** 
 622:Drivers/STM32F0xx_HAL_Driver/Src/stm32f0xx_hal_pcd.c **** /**
 623:Drivers/STM32F0xx_HAL_Driver/Src/stm32f0xx_hal_pcd.c ****   * @brief  Set the USB Device address 
 624:Drivers/STM32F0xx_HAL_Driver/Src/stm32f0xx_hal_pcd.c ****   * @param  hpcd PCD handle
 625:Drivers/STM32F0xx_HAL_Driver/Src/stm32f0xx_hal_pcd.c ****   * @param  address new device address
 626:Drivers/STM32F0xx_HAL_Driver/Src/stm32f0xx_hal_pcd.c ****   * @retval HAL status
 627:Drivers/STM32F0xx_HAL_Driver/Src/stm32f0xx_hal_pcd.c ****   */
 628:Drivers/STM32F0xx_HAL_Driver/Src/stm32f0xx_hal_pcd.c **** HAL_StatusTypeDef HAL_PCD_SetAddress(PCD_HandleTypeDef *hpcd, uint8_t address)
 629:Drivers/STM32F0xx_HAL_Driver/Src/stm32f0xx_hal_pcd.c **** {
 854              		.loc 1 629 1 is_stmt 1 view -0
 855              		.cfi_startproc
ARM GAS  /tmp/cclz3j42.s 			page 28


 856              		@ args = 0, pretend = 0, frame = 0
 857              		@ frame_needed = 0, uses_anonymous_args = 0
 858              		@ link register save eliminated.
 630:Drivers/STM32F0xx_HAL_Driver/Src/stm32f0xx_hal_pcd.c ****    __HAL_LOCK(hpcd); 
 859              		.loc 1 630 4 view .LVU187
 860              		.loc 1 630 4 view .LVU188
 861 0000 F423     		movs	r3, #244
 862 0002 5B00     		lsls	r3, r3, #1
 863 0004 C35C     		ldrb	r3, [r0, r3]
 864 0006 012B     		cmp	r3, #1
 865 0008 13D0     		beq	.L48
 866              		.loc 1 630 4 discriminator 2 view .LVU189
 867 000a F423     		movs	r3, #244
 868 000c 5B00     		lsls	r3, r3, #1
 869 000e 0122     		movs	r2, #1
 870 0010 C254     		strb	r2, [r0, r3]
 631:Drivers/STM32F0xx_HAL_Driver/Src/stm32f0xx_hal_pcd.c **** 
 632:Drivers/STM32F0xx_HAL_Driver/Src/stm32f0xx_hal_pcd.c ****    if(address == 0U) 
 871              		.loc 1 632 4 discriminator 2 view .LVU190
 872              		.loc 1 632 6 is_stmt 0 discriminator 2 view .LVU191
 873 0012 0029     		cmp	r1, #0
 874 0014 0AD1     		bne	.L46
 633:Drivers/STM32F0xx_HAL_Driver/Src/stm32f0xx_hal_pcd.c ****    {
 634:Drivers/STM32F0xx_HAL_Driver/Src/stm32f0xx_hal_pcd.c ****      /* set device address and enable function */
 635:Drivers/STM32F0xx_HAL_Driver/Src/stm32f0xx_hal_pcd.c ****      hpcd->Instance->DADDR = USB_DADDR_EF;
 875              		.loc 1 635 6 is_stmt 1 view .LVU192
 876              		.loc 1 635 28 is_stmt 0 view .LVU193
 877 0016 9D3B     		subs	r3, r3, #157
 878 0018 FF3B     		subs	r3, r3, #255
 879 001a 7F32     		adds	r2, r2, #127
 880 001c 0168     		ldr	r1, [r0]
 881              	.LVL50:
 882              		.loc 1 635 28 view .LVU194
 883 001e CA52     		strh	r2, [r1, r3]
 884              	.L47:
 636:Drivers/STM32F0xx_HAL_Driver/Src/stm32f0xx_hal_pcd.c ****    }
 637:Drivers/STM32F0xx_HAL_Driver/Src/stm32f0xx_hal_pcd.c ****    else /* USB Address will be applied later */
 638:Drivers/STM32F0xx_HAL_Driver/Src/stm32f0xx_hal_pcd.c ****    {
 639:Drivers/STM32F0xx_HAL_Driver/Src/stm32f0xx_hal_pcd.c ****      hpcd->USB_Address = address;
 640:Drivers/STM32F0xx_HAL_Driver/Src/stm32f0xx_hal_pcd.c ****    }
 641:Drivers/STM32F0xx_HAL_Driver/Src/stm32f0xx_hal_pcd.c **** 
 642:Drivers/STM32F0xx_HAL_Driver/Src/stm32f0xx_hal_pcd.c ****   __HAL_UNLOCK(hpcd);   
 885              		.loc 1 642 3 is_stmt 1 view .LVU195
 886              		.loc 1 642 3 view .LVU196
 887 0020 F423     		movs	r3, #244
 888 0022 5B00     		lsls	r3, r3, #1
 889 0024 0022     		movs	r2, #0
 890 0026 C254     		strb	r2, [r0, r3]
 643:Drivers/STM32F0xx_HAL_Driver/Src/stm32f0xx_hal_pcd.c ****   return HAL_OK;
 891              		.loc 1 643 3 view .LVU197
 892              		.loc 1 643 10 is_stmt 0 view .LVU198
 893 0028 0020     		movs	r0, #0
 894              	.LVL51:
 895              	.L45:
 644:Drivers/STM32F0xx_HAL_Driver/Src/stm32f0xx_hal_pcd.c **** }
 896              		.loc 1 644 1 view .LVU199
 897              		@ sp needed
ARM GAS  /tmp/cclz3j42.s 			page 29


 898 002a 7047     		bx	lr
 899              	.LVL52:
 900              	.L46:
 639:Drivers/STM32F0xx_HAL_Driver/Src/stm32f0xx_hal_pcd.c ****    }
 901              		.loc 1 639 6 is_stmt 1 view .LVU200
 639:Drivers/STM32F0xx_HAL_Driver/Src/stm32f0xx_hal_pcd.c ****    }
 902              		.loc 1 639 24 is_stmt 0 view .LVU201
 903 002c 2423     		movs	r3, #36
 904 002e C154     		strb	r1, [r0, r3]
 905 0030 F6E7     		b	.L47
 906              	.L48:
 630:Drivers/STM32F0xx_HAL_Driver/Src/stm32f0xx_hal_pcd.c **** 
 907              		.loc 1 630 4 view .LVU202
 908 0032 0220     		movs	r0, #2
 909              	.LVL53:
 630:Drivers/STM32F0xx_HAL_Driver/Src/stm32f0xx_hal_pcd.c **** 
 910              		.loc 1 630 4 view .LVU203
 911 0034 F9E7     		b	.L45
 912              		.cfi_endproc
 913              	.LFE57:
 915              		.section	.text.HAL_PCD_EP_Open,"ax",%progbits
 916              		.align	1
 917              		.global	HAL_PCD_EP_Open
 918              		.syntax unified
 919              		.code	16
 920              		.thumb_func
 921              		.fpu softvfp
 923              	HAL_PCD_EP_Open:
 924              	.LVL54:
 925              	.LFB58:
 645:Drivers/STM32F0xx_HAL_Driver/Src/stm32f0xx_hal_pcd.c **** /**
 646:Drivers/STM32F0xx_HAL_Driver/Src/stm32f0xx_hal_pcd.c ****   * @brief  Open and configure an endpoint
 647:Drivers/STM32F0xx_HAL_Driver/Src/stm32f0xx_hal_pcd.c ****   * @param  hpcd PCD handle
 648:Drivers/STM32F0xx_HAL_Driver/Src/stm32f0xx_hal_pcd.c ****   * @param  ep_addr endpoint address
 649:Drivers/STM32F0xx_HAL_Driver/Src/stm32f0xx_hal_pcd.c ****   * @param  ep_mps endpoint max packert size
 650:Drivers/STM32F0xx_HAL_Driver/Src/stm32f0xx_hal_pcd.c ****   * @param  ep_type endpoint type   
 651:Drivers/STM32F0xx_HAL_Driver/Src/stm32f0xx_hal_pcd.c ****   * @retval HAL status
 652:Drivers/STM32F0xx_HAL_Driver/Src/stm32f0xx_hal_pcd.c ****   */
 653:Drivers/STM32F0xx_HAL_Driver/Src/stm32f0xx_hal_pcd.c **** HAL_StatusTypeDef HAL_PCD_EP_Open(PCD_HandleTypeDef *hpcd, uint8_t ep_addr, uint16_t ep_mps, uint8_
 654:Drivers/STM32F0xx_HAL_Driver/Src/stm32f0xx_hal_pcd.c **** {
 926              		.loc 1 654 1 is_stmt 1 view -0
 927              		.cfi_startproc
 928              		@ args = 0, pretend = 0, frame = 0
 929              		@ frame_needed = 0, uses_anonymous_args = 0
 930              		.loc 1 654 1 is_stmt 0 view .LVU205
 931 0000 F0B5     		push	{r4, r5, r6, r7, lr}
 932              	.LCFI5:
 933              		.cfi_def_cfa_offset 20
 934              		.cfi_offset 4, -20
 935              		.cfi_offset 5, -16
 936              		.cfi_offset 6, -12
 937              		.cfi_offset 7, -8
 938              		.cfi_offset 14, -4
 655:Drivers/STM32F0xx_HAL_Driver/Src/stm32f0xx_hal_pcd.c ****   HAL_StatusTypeDef  ret = HAL_OK;
 939              		.loc 1 655 3 is_stmt 1 view .LVU206
 940              	.LVL55:
 656:Drivers/STM32F0xx_HAL_Driver/Src/stm32f0xx_hal_pcd.c ****   PCD_EPTypeDef *ep;
ARM GAS  /tmp/cclz3j42.s 			page 30


 941              		.loc 1 656 3 view .LVU207
 657:Drivers/STM32F0xx_HAL_Driver/Src/stm32f0xx_hal_pcd.c ****   
 658:Drivers/STM32F0xx_HAL_Driver/Src/stm32f0xx_hal_pcd.c ****   if ((ep_addr & 0x80U) == 0x80U)
 942              		.loc 1 658 3 view .LVU208
 943              		.loc 1 658 25 is_stmt 0 view .LVU209
 944 0002 4DB2     		sxtb	r5, r1
 945              		.loc 1 658 6 view .LVU210
 946 0004 002D     		cmp	r5, #0
 947 0006 65DB     		blt	.L73
 659:Drivers/STM32F0xx_HAL_Driver/Src/stm32f0xx_hal_pcd.c ****   {
 660:Drivers/STM32F0xx_HAL_Driver/Src/stm32f0xx_hal_pcd.c ****     ep = &hpcd->IN_ep[ep_addr & 0x7FU];
 661:Drivers/STM32F0xx_HAL_Driver/Src/stm32f0xx_hal_pcd.c ****   }
 662:Drivers/STM32F0xx_HAL_Driver/Src/stm32f0xx_hal_pcd.c ****   else
 663:Drivers/STM32F0xx_HAL_Driver/Src/stm32f0xx_hal_pcd.c ****   {
 664:Drivers/STM32F0xx_HAL_Driver/Src/stm32f0xx_hal_pcd.c ****     ep = &hpcd->OUT_ep[ep_addr & 0x7FU];
 948              		.loc 1 664 5 is_stmt 1 view .LVU211
 949              		.loc 1 664 32 is_stmt 0 view .LVU212
 950 0008 7F24     		movs	r4, #127
 951 000a 0C40     		ands	r4, r1
 952              		.loc 1 664 8 view .LVU213
 953 000c E600     		lsls	r6, r4, #3
 954 000e 361B     		subs	r6, r6, r4
 955 0010 B400     		lsls	r4, r6, #2
 956 0012 0934     		adds	r4, r4, #9
 957 0014 FF34     		adds	r4, r4, #255
 958 0016 0419     		adds	r4, r0, r4
 959              	.LVL56:
 960              	.L51:
 665:Drivers/STM32F0xx_HAL_Driver/Src/stm32f0xx_hal_pcd.c ****   }
 666:Drivers/STM32F0xx_HAL_Driver/Src/stm32f0xx_hal_pcd.c ****   ep->num   = ep_addr & 0x7FU;
 961              		.loc 1 666 3 is_stmt 1 view .LVU214
 962              		.loc 1 666 23 is_stmt 0 view .LVU215
 963 0018 7F26     		movs	r6, #127
 964 001a 0E40     		ands	r6, r1
 965              		.loc 1 666 13 view .LVU216
 966 001c 2670     		strb	r6, [r4]
 667:Drivers/STM32F0xx_HAL_Driver/Src/stm32f0xx_hal_pcd.c ****   
 668:Drivers/STM32F0xx_HAL_Driver/Src/stm32f0xx_hal_pcd.c ****   ep->is_in = (0x80U & ep_addr) != 0U;
 967              		.loc 1 668 3 is_stmt 1 view .LVU217
 968              		.loc 1 668 33 is_stmt 0 view .LVU218
 969 001e ED0F     		lsrs	r5, r5, #31
 970              		.loc 1 668 13 view .LVU219
 971 0020 6570     		strb	r5, [r4, #1]
 669:Drivers/STM32F0xx_HAL_Driver/Src/stm32f0xx_hal_pcd.c ****   ep->maxpacket = ep_mps;
 972              		.loc 1 669 3 is_stmt 1 view .LVU220
 973              		.loc 1 669 17 is_stmt 0 view .LVU221
 974 0022 E260     		str	r2, [r4, #12]
 670:Drivers/STM32F0xx_HAL_Driver/Src/stm32f0xx_hal_pcd.c ****   ep->type = ep_type;
 975              		.loc 1 670 3 is_stmt 1 view .LVU222
 976              		.loc 1 670 12 is_stmt 0 view .LVU223
 977 0024 E370     		strb	r3, [r4, #3]
 671:Drivers/STM32F0xx_HAL_Driver/Src/stm32f0xx_hal_pcd.c ****   
 672:Drivers/STM32F0xx_HAL_Driver/Src/stm32f0xx_hal_pcd.c ****   __HAL_LOCK(hpcd); 
 978              		.loc 1 672 3 is_stmt 1 view .LVU224
 979              		.loc 1 672 3 view .LVU225
 980 0026 F423     		movs	r3, #244
 981              	.LVL57:
ARM GAS  /tmp/cclz3j42.s 			page 31


 982              		.loc 1 672 3 is_stmt 0 view .LVU226
 983 0028 5B00     		lsls	r3, r3, #1
 984 002a C35C     		ldrb	r3, [r0, r3]
 985 002c 012B     		cmp	r3, #1
 986 002e 00D1     		bne	.LCB762
 987 0030 75E1     		b	.L72	@long jump
 988              	.LCB762:
 989              		.loc 1 672 3 is_stmt 1 discriminator 2 view .LVU227
 990 0032 F423     		movs	r3, #244
 991 0034 5B00     		lsls	r3, r3, #1
 992 0036 0122     		movs	r2, #1
 993              	.LVL58:
 994              		.loc 1 672 3 is_stmt 0 discriminator 2 view .LVU228
 995 0038 C254     		strb	r2, [r0, r3]
 996              	.LVL59:
 673:Drivers/STM32F0xx_HAL_Driver/Src/stm32f0xx_hal_pcd.c **** 
 674:Drivers/STM32F0xx_HAL_Driver/Src/stm32f0xx_hal_pcd.c ****   /* initialize Endpoint */
 675:Drivers/STM32F0xx_HAL_Driver/Src/stm32f0xx_hal_pcd.c ****   switch (ep->type)
 997              		.loc 1 675 3 is_stmt 1 discriminator 2 view .LVU229
 998              		.loc 1 675 13 is_stmt 0 discriminator 2 view .LVU230
 999 003a E378     		ldrb	r3, [r4, #3]
 1000              		.loc 1 675 3 discriminator 2 view .LVU231
 1001 003c 012B     		cmp	r3, #1
 1002 003e 00D1     		bne	.LCB775
 1003 0040 74E0     		b	.L53	@long jump
 1004              	.LCB775:
 1005              		.loc 1 675 3 view .LVU232
 1006 0042 002B     		cmp	r3, #0
 1007 0044 4ED0     		beq	.L54
 1008 0046 022B     		cmp	r3, #2
 1009 0048 59D0     		beq	.L55
 1010 004a 032B     		cmp	r3, #3
 1011 004c 61D0     		beq	.L56
 1012              	.LVL60:
 1013              	.L57:
 676:Drivers/STM32F0xx_HAL_Driver/Src/stm32f0xx_hal_pcd.c ****   {
 677:Drivers/STM32F0xx_HAL_Driver/Src/stm32f0xx_hal_pcd.c ****   case PCD_EP_TYPE_CTRL:
 678:Drivers/STM32F0xx_HAL_Driver/Src/stm32f0xx_hal_pcd.c ****     PCD_SET_EPTYPE(hpcd->Instance, ep->num, USB_EP_CONTROL);
 679:Drivers/STM32F0xx_HAL_Driver/Src/stm32f0xx_hal_pcd.c ****     break;
 680:Drivers/STM32F0xx_HAL_Driver/Src/stm32f0xx_hal_pcd.c ****   case PCD_EP_TYPE_BULK:
 681:Drivers/STM32F0xx_HAL_Driver/Src/stm32f0xx_hal_pcd.c ****     PCD_SET_EPTYPE(hpcd->Instance, ep->num, USB_EP_BULK);
 682:Drivers/STM32F0xx_HAL_Driver/Src/stm32f0xx_hal_pcd.c ****     break;
 683:Drivers/STM32F0xx_HAL_Driver/Src/stm32f0xx_hal_pcd.c ****   case PCD_EP_TYPE_INTR:
 684:Drivers/STM32F0xx_HAL_Driver/Src/stm32f0xx_hal_pcd.c ****     PCD_SET_EPTYPE(hpcd->Instance, ep->num, USB_EP_INTERRUPT);
 685:Drivers/STM32F0xx_HAL_Driver/Src/stm32f0xx_hal_pcd.c ****     break;
 686:Drivers/STM32F0xx_HAL_Driver/Src/stm32f0xx_hal_pcd.c ****   case PCD_EP_TYPE_ISOC:
 687:Drivers/STM32F0xx_HAL_Driver/Src/stm32f0xx_hal_pcd.c ****     PCD_SET_EPTYPE(hpcd->Instance, ep->num, USB_EP_ISOCHRONOUS);
 688:Drivers/STM32F0xx_HAL_Driver/Src/stm32f0xx_hal_pcd.c ****     break;
 689:Drivers/STM32F0xx_HAL_Driver/Src/stm32f0xx_hal_pcd.c ****   default:
 690:Drivers/STM32F0xx_HAL_Driver/Src/stm32f0xx_hal_pcd.c ****     break;
 691:Drivers/STM32F0xx_HAL_Driver/Src/stm32f0xx_hal_pcd.c ****   } 
 692:Drivers/STM32F0xx_HAL_Driver/Src/stm32f0xx_hal_pcd.c ****   
 693:Drivers/STM32F0xx_HAL_Driver/Src/stm32f0xx_hal_pcd.c ****   PCD_SET_EP_ADDRESS(hpcd->Instance, ep->num, ep->num);
 1014              		.loc 1 693 3 is_stmt 1 view .LVU233
 1015 004e 2278     		ldrb	r2, [r4]
 1016 0050 9300     		lsls	r3, r2, #2
 1017 0052 0168     		ldr	r1, [r0]
ARM GAS  /tmp/cclz3j42.s 			page 32


 1018 0054 8C46     		mov	ip, r1
 1019 0056 6344     		add	r3, r3, ip
 1020 0058 1988     		ldrh	r1, [r3]
 1021 005a B24D     		ldr	r5, .L74
 1022 005c 2940     		ands	r1, r5
 1023 005e 0A43     		orrs	r2, r1
 1024 0060 B149     		ldr	r1, .L74+4
 1025 0062 0A43     		orrs	r2, r1
 1026 0064 1A80     		strh	r2, [r3]
 694:Drivers/STM32F0xx_HAL_Driver/Src/stm32f0xx_hal_pcd.c ****   
 695:Drivers/STM32F0xx_HAL_Driver/Src/stm32f0xx_hal_pcd.c ****   if (ep->doublebuffer == 0U) 
 1027              		.loc 1 695 3 view .LVU234
 1028              		.loc 1 695 9 is_stmt 0 view .LVU235
 1029 0066 A37A     		ldrb	r3, [r4, #10]
 1030              		.loc 1 695 6 view .LVU236
 1031 0068 002B     		cmp	r3, #0
 1032 006a 00D0     		beq	.LCB806
 1033 006c B5E0     		b	.L58	@long jump
 1034              	.LCB806:
 696:Drivers/STM32F0xx_HAL_Driver/Src/stm32f0xx_hal_pcd.c ****   {
 697:Drivers/STM32F0xx_HAL_Driver/Src/stm32f0xx_hal_pcd.c ****     if (ep->is_in)
 1035              		.loc 1 697 5 is_stmt 1 view .LVU237
 1036              		.loc 1 697 11 is_stmt 0 view .LVU238
 1037 006e 6378     		ldrb	r3, [r4, #1]
 1038              		.loc 1 697 8 view .LVU239
 1039 0070 002B     		cmp	r3, #0
 1040 0072 00D1     		bne	.LCB810
 1041 0074 67E0     		b	.L59	@long jump
 1042              	.LCB810:
 698:Drivers/STM32F0xx_HAL_Driver/Src/stm32f0xx_hal_pcd.c ****     {
 699:Drivers/STM32F0xx_HAL_Driver/Src/stm32f0xx_hal_pcd.c ****       /*Set the endpoint Transmit buffer address */
 700:Drivers/STM32F0xx_HAL_Driver/Src/stm32f0xx_hal_pcd.c ****       PCD_SET_EP_TX_ADDRESS(hpcd->Instance, ep->num, ep->pmaadress);
 1043              		.loc 1 700 7 is_stmt 1 view .LVU240
 1044 0076 A288     		ldrh	r2, [r4, #4]
 1045 0078 0568     		ldr	r5, [r0]
 1046 007a 5023     		movs	r3, #80
 1047 007c EB5A     		ldrh	r3, [r5, r3]
 1048 007e 2178     		ldrb	r1, [r4]
 1049 0080 C900     		lsls	r1, r1, #3
 1050 0082 5B18     		adds	r3, r3, r1
 1051 0084 5B19     		adds	r3, r3, r5
 1052 0086 8021     		movs	r1, #128
 1053 0088 C900     		lsls	r1, r1, #3
 1054 008a 8C46     		mov	ip, r1
 1055 008c 6344     		add	r3, r3, ip
 1056 008e 0121     		movs	r1, #1
 1057 0090 8A43     		bics	r2, r1
 1058 0092 1A80     		strh	r2, [r3]
 701:Drivers/STM32F0xx_HAL_Driver/Src/stm32f0xx_hal_pcd.c ****       PCD_CLEAR_TX_DTOG(hpcd->Instance, ep->num)
 1059              		.loc 1 701 7 view .LVU241
 1060 0094 2378     		ldrb	r3, [r4]
 1061 0096 9B00     		lsls	r3, r3, #2
 1062 0098 0268     		ldr	r2, [r0]
 1063 009a 9446     		mov	ip, r2
 1064 009c 6344     		add	r3, r3, ip
 1065 009e 1A88     		ldrh	r2, [r3]
 1066 00a0 5106     		lsls	r1, r2, #25
ARM GAS  /tmp/cclz3j42.s 			page 33


 1067 00a2 04D5     		bpl	.L60
 1068              		.loc 1 701 7 discriminator 1 view .LVU242
 1069 00a4 9F49     		ldr	r1, .L74
 1070 00a6 0A40     		ands	r2, r1
 1071 00a8 A049     		ldr	r1, .L74+8
 1072 00aa 0A43     		orrs	r2, r1
 1073 00ac 1A80     		strh	r2, [r3]
 1074              	.L60:
 1075              	.LBB2:
 702:Drivers/STM32F0xx_HAL_Driver/Src/stm32f0xx_hal_pcd.c ****       /* Configure NAK status for the Endpoint*/
 703:Drivers/STM32F0xx_HAL_Driver/Src/stm32f0xx_hal_pcd.c ****       PCD_SET_EP_TX_STATUS(hpcd->Instance, ep->num, USB_EP_TX_NAK) 
 1076              		.loc 1 703 7 view .LVU243
 1077              		.loc 1 703 7 view .LVU244
 1078 00ae 2278     		ldrb	r2, [r4]
 1079 00b0 9200     		lsls	r2, r2, #2
 1080 00b2 0368     		ldr	r3, [r0]
 1081 00b4 9C46     		mov	ip, r3
 1082 00b6 6244     		add	r2, r2, ip
 1083 00b8 1388     		ldrh	r3, [r2]
 1084 00ba 9D49     		ldr	r1, .L74+12
 1085 00bc 0B40     		ands	r3, r1
 1086              	.LVL61:
 1087              		.loc 1 703 7 view .LVU245
 1088              		.loc 1 703 7 view .LVU246
 1089              		.loc 1 703 7 view .LVU247
 1090 00be 2021     		movs	r1, #32
 1091 00c0 4B40     		eors	r3, r1
 1092              	.LVL62:
 1093              		.loc 1 703 7 view .LVU248
 1094 00c2 9949     		ldr	r1, .L74+4
 1095 00c4 0B43     		orrs	r3, r1
 1096              	.LVL63:
 1097              		.loc 1 703 7 is_stmt 0 view .LVU249
 1098 00c6 1380     		strh	r3, [r2]
 1099              	.LVL64:
 1100              	.L61:
 1101              		.loc 1 703 7 view .LVU250
 1102              	.LBE2:
 704:Drivers/STM32F0xx_HAL_Driver/Src/stm32f0xx_hal_pcd.c ****     }
 705:Drivers/STM32F0xx_HAL_Driver/Src/stm32f0xx_hal_pcd.c ****     else
 706:Drivers/STM32F0xx_HAL_Driver/Src/stm32f0xx_hal_pcd.c ****     {
 707:Drivers/STM32F0xx_HAL_Driver/Src/stm32f0xx_hal_pcd.c ****       /*Set the endpoint Receive buffer address */
 708:Drivers/STM32F0xx_HAL_Driver/Src/stm32f0xx_hal_pcd.c ****       PCD_SET_EP_RX_ADDRESS(hpcd->Instance, ep->num, ep->pmaadress);
 709:Drivers/STM32F0xx_HAL_Driver/Src/stm32f0xx_hal_pcd.c ****       /*Set the endpoint Receive buffer counter*/
 710:Drivers/STM32F0xx_HAL_Driver/Src/stm32f0xx_hal_pcd.c ****       PCD_SET_EP_RX_CNT(hpcd->Instance, ep->num, ep->maxpacket)
 711:Drivers/STM32F0xx_HAL_Driver/Src/stm32f0xx_hal_pcd.c ****       PCD_CLEAR_RX_DTOG(hpcd->Instance, ep->num)
 712:Drivers/STM32F0xx_HAL_Driver/Src/stm32f0xx_hal_pcd.c ****       /* Configure VALID status for the Endpoint*/
 713:Drivers/STM32F0xx_HAL_Driver/Src/stm32f0xx_hal_pcd.c ****       PCD_SET_EP_RX_STATUS(hpcd->Instance, ep->num, USB_EP_RX_VALID)
 714:Drivers/STM32F0xx_HAL_Driver/Src/stm32f0xx_hal_pcd.c ****     }
 715:Drivers/STM32F0xx_HAL_Driver/Src/stm32f0xx_hal_pcd.c ****   }
 716:Drivers/STM32F0xx_HAL_Driver/Src/stm32f0xx_hal_pcd.c ****   /*Double Buffer*/
 717:Drivers/STM32F0xx_HAL_Driver/Src/stm32f0xx_hal_pcd.c ****   else
 718:Drivers/STM32F0xx_HAL_Driver/Src/stm32f0xx_hal_pcd.c ****   {
 719:Drivers/STM32F0xx_HAL_Driver/Src/stm32f0xx_hal_pcd.c ****     /*Set the endpoint as double buffered*/
 720:Drivers/STM32F0xx_HAL_Driver/Src/stm32f0xx_hal_pcd.c ****     PCD_SET_EP_DBUF(hpcd->Instance, ep->num);
 721:Drivers/STM32F0xx_HAL_Driver/Src/stm32f0xx_hal_pcd.c ****     /*Set buffer address for double buffered mode*/
 722:Drivers/STM32F0xx_HAL_Driver/Src/stm32f0xx_hal_pcd.c ****     PCD_SET_EP_DBUF_ADDR(hpcd->Instance, ep->num,ep->pmaaddr0, ep->pmaaddr1)
ARM GAS  /tmp/cclz3j42.s 			page 34


 723:Drivers/STM32F0xx_HAL_Driver/Src/stm32f0xx_hal_pcd.c ****     
 724:Drivers/STM32F0xx_HAL_Driver/Src/stm32f0xx_hal_pcd.c ****     if (ep->is_in==0U)
 725:Drivers/STM32F0xx_HAL_Driver/Src/stm32f0xx_hal_pcd.c ****     {
 726:Drivers/STM32F0xx_HAL_Driver/Src/stm32f0xx_hal_pcd.c ****       /* Clear the data toggle bits for the endpoint IN/OUT*/
 727:Drivers/STM32F0xx_HAL_Driver/Src/stm32f0xx_hal_pcd.c ****       PCD_CLEAR_RX_DTOG(hpcd->Instance, ep->num)
 728:Drivers/STM32F0xx_HAL_Driver/Src/stm32f0xx_hal_pcd.c ****       PCD_CLEAR_TX_DTOG(hpcd->Instance, ep->num)
 729:Drivers/STM32F0xx_HAL_Driver/Src/stm32f0xx_hal_pcd.c ****       
 730:Drivers/STM32F0xx_HAL_Driver/Src/stm32f0xx_hal_pcd.c ****       /* Reset value of the data toggle bits for the endpoint out*/
 731:Drivers/STM32F0xx_HAL_Driver/Src/stm32f0xx_hal_pcd.c ****       PCD_TX_DTOG(hpcd->Instance, ep->num);
 732:Drivers/STM32F0xx_HAL_Driver/Src/stm32f0xx_hal_pcd.c ****       
 733:Drivers/STM32F0xx_HAL_Driver/Src/stm32f0xx_hal_pcd.c ****       PCD_SET_EP_RX_STATUS(hpcd->Instance, ep->num, USB_EP_RX_VALID)
 734:Drivers/STM32F0xx_HAL_Driver/Src/stm32f0xx_hal_pcd.c ****       PCD_SET_EP_TX_STATUS(hpcd->Instance, ep->num, USB_EP_TX_DIS)
 735:Drivers/STM32F0xx_HAL_Driver/Src/stm32f0xx_hal_pcd.c ****     }
 736:Drivers/STM32F0xx_HAL_Driver/Src/stm32f0xx_hal_pcd.c ****     else
 737:Drivers/STM32F0xx_HAL_Driver/Src/stm32f0xx_hal_pcd.c ****     {
 738:Drivers/STM32F0xx_HAL_Driver/Src/stm32f0xx_hal_pcd.c ****       /* Clear the data toggle bits for the endpoint IN/OUT*/
 739:Drivers/STM32F0xx_HAL_Driver/Src/stm32f0xx_hal_pcd.c ****       PCD_CLEAR_RX_DTOG(hpcd->Instance, ep->num)
 740:Drivers/STM32F0xx_HAL_Driver/Src/stm32f0xx_hal_pcd.c ****       PCD_CLEAR_TX_DTOG(hpcd->Instance, ep->num)
 741:Drivers/STM32F0xx_HAL_Driver/Src/stm32f0xx_hal_pcd.c ****       PCD_RX_DTOG(hpcd->Instance, ep->num);
 742:Drivers/STM32F0xx_HAL_Driver/Src/stm32f0xx_hal_pcd.c ****       /* Configure DISABLE status for the Endpoint*/
 743:Drivers/STM32F0xx_HAL_Driver/Src/stm32f0xx_hal_pcd.c ****       PCD_SET_EP_TX_STATUS(hpcd->Instance, ep->num, USB_EP_TX_DIS)
 744:Drivers/STM32F0xx_HAL_Driver/Src/stm32f0xx_hal_pcd.c ****       PCD_SET_EP_RX_STATUS(hpcd->Instance, ep->num, USB_EP_RX_DIS)
 745:Drivers/STM32F0xx_HAL_Driver/Src/stm32f0xx_hal_pcd.c ****     }
 746:Drivers/STM32F0xx_HAL_Driver/Src/stm32f0xx_hal_pcd.c ****   } 
 747:Drivers/STM32F0xx_HAL_Driver/Src/stm32f0xx_hal_pcd.c ****   
 748:Drivers/STM32F0xx_HAL_Driver/Src/stm32f0xx_hal_pcd.c ****   __HAL_UNLOCK(hpcd);   
 1103              		.loc 1 748 3 is_stmt 1 view .LVU251
 1104              		.loc 1 748 3 view .LVU252
 1105 00c8 F423     		movs	r3, #244
 1106 00ca 5B00     		lsls	r3, r3, #1
 1107 00cc 0022     		movs	r2, #0
 1108 00ce C254     		strb	r2, [r0, r3]
 749:Drivers/STM32F0xx_HAL_Driver/Src/stm32f0xx_hal_pcd.c ****   return ret;
 1109              		.loc 1 749 3 view .LVU253
 1110              		.loc 1 749 10 is_stmt 0 view .LVU254
 1111 00d0 0020     		movs	r0, #0
 1112              	.LVL65:
 1113              	.L52:
 750:Drivers/STM32F0xx_HAL_Driver/Src/stm32f0xx_hal_pcd.c **** }
 1114              		.loc 1 750 1 view .LVU255
 1115              		@ sp needed
 1116 00d2 F0BD     		pop	{r4, r5, r6, r7, pc}
 1117              	.LVL66:
 1118              	.L73:
 660:Drivers/STM32F0xx_HAL_Driver/Src/stm32f0xx_hal_pcd.c ****   }
 1119              		.loc 1 660 5 is_stmt 1 view .LVU256
 660:Drivers/STM32F0xx_HAL_Driver/Src/stm32f0xx_hal_pcd.c ****   }
 1120              		.loc 1 660 31 is_stmt 0 view .LVU257
 1121 00d4 7F24     		movs	r4, #127
 1122 00d6 0C40     		ands	r4, r1
 660:Drivers/STM32F0xx_HAL_Driver/Src/stm32f0xx_hal_pcd.c ****   }
 1123              		.loc 1 660 8 view .LVU258
 1124 00d8 E600     		lsls	r6, r4, #3
 1125 00da 361B     		subs	r6, r6, r4
 1126 00dc B400     		lsls	r4, r6, #2
 1127 00de 2834     		adds	r4, r4, #40
 1128 00e0 0419     		adds	r4, r0, r4
ARM GAS  /tmp/cclz3j42.s 			page 35


 1129              	.LVL67:
 660:Drivers/STM32F0xx_HAL_Driver/Src/stm32f0xx_hal_pcd.c ****   }
 1130              		.loc 1 660 8 view .LVU259
 1131 00e2 99E7     		b	.L51
 1132              	.LVL68:
 1133              	.L54:
 678:Drivers/STM32F0xx_HAL_Driver/Src/stm32f0xx_hal_pcd.c ****     break;
 1134              		.loc 1 678 5 is_stmt 1 view .LVU260
 1135 00e4 2378     		ldrb	r3, [r4]
 1136 00e6 9B00     		lsls	r3, r3, #2
 1137 00e8 0268     		ldr	r2, [r0]
 1138 00ea 9446     		mov	ip, r2
 1139 00ec 6344     		add	r3, r3, ip
 1140 00ee 1A88     		ldrh	r2, [r3]
 1141 00f0 9049     		ldr	r1, .L74+16
 1142              	.LVL69:
 678:Drivers/STM32F0xx_HAL_Driver/Src/stm32f0xx_hal_pcd.c ****     break;
 1143              		.loc 1 678 5 is_stmt 0 view .LVU261
 1144 00f2 1140     		ands	r1, r2
 1145 00f4 8022     		movs	r2, #128
 1146 00f6 9200     		lsls	r2, r2, #2
 1147 00f8 0A43     		orrs	r2, r1
 1148 00fa 1A80     		strh	r2, [r3]
 679:Drivers/STM32F0xx_HAL_Driver/Src/stm32f0xx_hal_pcd.c ****   case PCD_EP_TYPE_BULK:
 1149              		.loc 1 679 5 is_stmt 1 view .LVU262
 1150 00fc A7E7     		b	.L57
 1151              	.LVL70:
 1152              	.L55:
 681:Drivers/STM32F0xx_HAL_Driver/Src/stm32f0xx_hal_pcd.c ****     break;
 1153              		.loc 1 681 5 view .LVU263
 1154 00fe 2378     		ldrb	r3, [r4]
 1155 0100 9B00     		lsls	r3, r3, #2
 1156 0102 0268     		ldr	r2, [r0]
 1157 0104 9446     		mov	ip, r2
 1158 0106 6344     		add	r3, r3, ip
 1159 0108 1A88     		ldrh	r2, [r3]
 1160 010a 8A49     		ldr	r1, .L74+16
 1161              	.LVL71:
 681:Drivers/STM32F0xx_HAL_Driver/Src/stm32f0xx_hal_pcd.c ****     break;
 1162              		.loc 1 681 5 is_stmt 0 view .LVU264
 1163 010c 0A40     		ands	r2, r1
 1164 010e 1A80     		strh	r2, [r3]
 682:Drivers/STM32F0xx_HAL_Driver/Src/stm32f0xx_hal_pcd.c ****   case PCD_EP_TYPE_INTR:
 1165              		.loc 1 682 5 is_stmt 1 view .LVU265
 1166 0110 9DE7     		b	.L57
 1167              	.LVL72:
 1168              	.L56:
 684:Drivers/STM32F0xx_HAL_Driver/Src/stm32f0xx_hal_pcd.c ****     break;
 1169              		.loc 1 684 5 view .LVU266
 1170 0112 2378     		ldrb	r3, [r4]
 1171 0114 9B00     		lsls	r3, r3, #2
 1172 0116 0268     		ldr	r2, [r0]
 1173 0118 9446     		mov	ip, r2
 1174 011a 6344     		add	r3, r3, ip
 1175 011c 1A88     		ldrh	r2, [r3]
 1176 011e 8549     		ldr	r1, .L74+16
 1177              	.LVL73:
ARM GAS  /tmp/cclz3j42.s 			page 36


 684:Drivers/STM32F0xx_HAL_Driver/Src/stm32f0xx_hal_pcd.c ****     break;
 1178              		.loc 1 684 5 is_stmt 0 view .LVU267
 1179 0120 1140     		ands	r1, r2
 1180 0122 C022     		movs	r2, #192
 1181 0124 D200     		lsls	r2, r2, #3
 1182 0126 0A43     		orrs	r2, r1
 1183 0128 1A80     		strh	r2, [r3]
 685:Drivers/STM32F0xx_HAL_Driver/Src/stm32f0xx_hal_pcd.c ****   case PCD_EP_TYPE_ISOC:
 1184              		.loc 1 685 5 is_stmt 1 view .LVU268
 1185 012a 90E7     		b	.L57
 1186              	.LVL74:
 1187              	.L53:
 687:Drivers/STM32F0xx_HAL_Driver/Src/stm32f0xx_hal_pcd.c ****     break;
 1188              		.loc 1 687 5 view .LVU269
 1189 012c 2378     		ldrb	r3, [r4]
 1190 012e 9B00     		lsls	r3, r3, #2
 1191 0130 0268     		ldr	r2, [r0]
 1192 0132 9446     		mov	ip, r2
 1193 0134 6344     		add	r3, r3, ip
 1194 0136 1A88     		ldrh	r2, [r3]
 1195 0138 7E49     		ldr	r1, .L74+16
 1196              	.LVL75:
 687:Drivers/STM32F0xx_HAL_Driver/Src/stm32f0xx_hal_pcd.c ****     break;
 1197              		.loc 1 687 5 is_stmt 0 view .LVU270
 1198 013a 1140     		ands	r1, r2
 1199 013c 8022     		movs	r2, #128
 1200 013e D200     		lsls	r2, r2, #3
 1201 0140 0A43     		orrs	r2, r1
 1202 0142 1A80     		strh	r2, [r3]
 688:Drivers/STM32F0xx_HAL_Driver/Src/stm32f0xx_hal_pcd.c ****   default:
 1203              		.loc 1 688 5 is_stmt 1 view .LVU271
 1204 0144 83E7     		b	.L57
 1205              	.L59:
 708:Drivers/STM32F0xx_HAL_Driver/Src/stm32f0xx_hal_pcd.c ****       /*Set the endpoint Receive buffer counter*/
 1206              		.loc 1 708 7 view .LVU272
 1207 0146 A288     		ldrh	r2, [r4, #4]
 1208 0148 0568     		ldr	r5, [r0]
 1209 014a 5026     		movs	r6, #80
 1210 014c AB5B     		ldrh	r3, [r5, r6]
 1211 014e 2178     		ldrb	r1, [r4]
 1212 0150 C900     		lsls	r1, r1, #3
 1213 0152 5B18     		adds	r3, r3, r1
 1214 0154 5B19     		adds	r3, r3, r5
 1215 0156 7849     		ldr	r1, .L74+20
 1216 0158 8C46     		mov	ip, r1
 1217 015a 6344     		add	r3, r3, ip
 1218 015c 0121     		movs	r1, #1
 1219 015e 8A43     		bics	r2, r1
 1220 0160 1A80     		strh	r2, [r3]
 1221              	.LBB3:
 710:Drivers/STM32F0xx_HAL_Driver/Src/stm32f0xx_hal_pcd.c ****       PCD_CLEAR_RX_DTOG(hpcd->Instance, ep->num)
 1222              		.loc 1 710 7 view .LVU273
 1223 0162 0168     		ldr	r1, [r0]
 1224 0164 8B5B     		ldrh	r3, [r1, r6]
 1225 0166 2278     		ldrb	r2, [r4]
 1226 0168 D200     		lsls	r2, r2, #3
 1227 016a 9B18     		adds	r3, r3, r2
ARM GAS  /tmp/cclz3j42.s 			page 37


 1228 016c 5B18     		adds	r3, r3, r1
 1229 016e 734A     		ldr	r2, .L74+24
 1230 0170 9446     		mov	ip, r2
 1231 0172 6344     		add	r3, r3, ip
 1232              	.LVL76:
 1233              	.LBB4:
 710:Drivers/STM32F0xx_HAL_Driver/Src/stm32f0xx_hal_pcd.c ****       PCD_CLEAR_RX_DTOG(hpcd->Instance, ep->num)
 1234              		.loc 1 710 7 view .LVU274
 710:Drivers/STM32F0xx_HAL_Driver/Src/stm32f0xx_hal_pcd.c ****       PCD_CLEAR_RX_DTOG(hpcd->Instance, ep->num)
 1235              		.loc 1 710 7 view .LVU275
 1236 0174 E168     		ldr	r1, [r4, #12]
 1237 0176 3E29     		cmp	r1, #62
 1238 0178 26D9     		bls	.L62
 710:Drivers/STM32F0xx_HAL_Driver/Src/stm32f0xx_hal_pcd.c ****       PCD_CLEAR_RX_DTOG(hpcd->Instance, ep->num)
 1239              		.loc 1 710 7 discriminator 1 view .LVU276
 1240 017a 4A09     		lsrs	r2, r1, #5
 1241 017c 92B2     		uxth	r2, r2
 1242              	.LVL77:
 710:Drivers/STM32F0xx_HAL_Driver/Src/stm32f0xx_hal_pcd.c ****       PCD_CLEAR_RX_DTOG(hpcd->Instance, ep->num)
 1243              		.loc 1 710 7 discriminator 1 view .LVU277
 1244 017e C906     		lsls	r1, r1, #27
 1245 0180 01D1     		bne	.L63
 710:Drivers/STM32F0xx_HAL_Driver/Src/stm32f0xx_hal_pcd.c ****       PCD_CLEAR_RX_DTOG(hpcd->Instance, ep->num)
 1246              		.loc 1 710 7 discriminator 3 view .LVU278
 1247 0182 013A     		subs	r2, r2, #1
 1248              	.LVL78:
 710:Drivers/STM32F0xx_HAL_Driver/Src/stm32f0xx_hal_pcd.c ****       PCD_CLEAR_RX_DTOG(hpcd->Instance, ep->num)
 1249              		.loc 1 710 7 is_stmt 0 discriminator 3 view .LVU279
 1250 0184 92B2     		uxth	r2, r2
 1251              	.LVL79:
 1252              	.L63:
 710:Drivers/STM32F0xx_HAL_Driver/Src/stm32f0xx_hal_pcd.c ****       PCD_CLEAR_RX_DTOG(hpcd->Instance, ep->num)
 1253              		.loc 1 710 7 is_stmt 1 discriminator 5 view .LVU280
 1254 0186 9202     		lsls	r2, r2, #10
 1255              	.LVL80:
 710:Drivers/STM32F0xx_HAL_Driver/Src/stm32f0xx_hal_pcd.c ****       PCD_CLEAR_RX_DTOG(hpcd->Instance, ep->num)
 1256              		.loc 1 710 7 is_stmt 0 discriminator 5 view .LVU281
 1257 0188 92B2     		uxth	r2, r2
 1258 018a 6D49     		ldr	r1, .L74+28
 1259 018c 0A43     		orrs	r2, r1
 1260 018e 1A80     		strh	r2, [r3]
 1261              	.L64:
 710:Drivers/STM32F0xx_HAL_Driver/Src/stm32f0xx_hal_pcd.c ****       PCD_CLEAR_RX_DTOG(hpcd->Instance, ep->num)
 1262              		.loc 1 710 7 discriminator 5 view .LVU282
 1263              	.LBE4:
 1264              	.LBE3:
 711:Drivers/STM32F0xx_HAL_Driver/Src/stm32f0xx_hal_pcd.c ****       /* Configure VALID status for the Endpoint*/
 1265              		.loc 1 711 7 is_stmt 1 view .LVU283
 1266 0190 2378     		ldrb	r3, [r4]
 1267              	.LVL81:
 711:Drivers/STM32F0xx_HAL_Driver/Src/stm32f0xx_hal_pcd.c ****       /* Configure VALID status for the Endpoint*/
 1268              		.loc 1 711 7 is_stmt 0 view .LVU284
 1269 0192 9B00     		lsls	r3, r3, #2
 1270 0194 0268     		ldr	r2, [r0]
 1271 0196 9446     		mov	ip, r2
 1272 0198 6344     		add	r3, r3, ip
 1273 019a 1A88     		ldrh	r2, [r3]
ARM GAS  /tmp/cclz3j42.s 			page 38


 1274 019c 5104     		lsls	r1, r2, #17
 1275 019e 04D5     		bpl	.L66
 711:Drivers/STM32F0xx_HAL_Driver/Src/stm32f0xx_hal_pcd.c ****       /* Configure VALID status for the Endpoint*/
 1276              		.loc 1 711 7 is_stmt 1 discriminator 1 view .LVU285
 1277 01a0 6049     		ldr	r1, .L74
 1278 01a2 0A40     		ands	r2, r1
 1279 01a4 6749     		ldr	r1, .L74+32
 1280 01a6 0A43     		orrs	r2, r1
 1281 01a8 1A80     		strh	r2, [r3]
 1282              	.L66:
 1283              	.LBB6:
 713:Drivers/STM32F0xx_HAL_Driver/Src/stm32f0xx_hal_pcd.c ****     }
 1284              		.loc 1 713 7 view .LVU286
 713:Drivers/STM32F0xx_HAL_Driver/Src/stm32f0xx_hal_pcd.c ****     }
 1285              		.loc 1 713 7 view .LVU287
 1286 01aa 2378     		ldrb	r3, [r4]
 1287 01ac 9B00     		lsls	r3, r3, #2
 1288 01ae 0268     		ldr	r2, [r0]
 1289 01b0 9446     		mov	ip, r2
 1290 01b2 6344     		add	r3, r3, ip
 1291 01b4 1988     		ldrh	r1, [r3]
 1292 01b6 644A     		ldr	r2, .L74+36
 1293 01b8 1140     		ands	r1, r2
 1294              	.LVL82:
 713:Drivers/STM32F0xx_HAL_Driver/Src/stm32f0xx_hal_pcd.c ****     }
 1295              		.loc 1 713 7 view .LVU288
 713:Drivers/STM32F0xx_HAL_Driver/Src/stm32f0xx_hal_pcd.c ****     }
 1296              		.loc 1 713 7 view .LVU289
 713:Drivers/STM32F0xx_HAL_Driver/Src/stm32f0xx_hal_pcd.c ****     }
 1297              		.loc 1 713 7 view .LVU290
 713:Drivers/STM32F0xx_HAL_Driver/Src/stm32f0xx_hal_pcd.c ****     }
 1298              		.loc 1 713 7 view .LVU291
 1299 01ba C022     		movs	r2, #192
 1300 01bc 9201     		lsls	r2, r2, #6
 1301 01be 5140     		eors	r1, r2
 1302              	.LVL83:
 713:Drivers/STM32F0xx_HAL_Driver/Src/stm32f0xx_hal_pcd.c ****     }
 1303              		.loc 1 713 7 view .LVU292
 1304 01c0 594A     		ldr	r2, .L74+4
 1305 01c2 0A43     		orrs	r2, r1
 1306 01c4 1A80     		strh	r2, [r3]
 1307 01c6 7FE7     		b	.L61
 1308              	.LVL84:
 1309              	.L62:
 713:Drivers/STM32F0xx_HAL_Driver/Src/stm32f0xx_hal_pcd.c ****     }
 1310              		.loc 1 713 7 is_stmt 0 view .LVU293
 1311              	.LBE6:
 1312              	.LBB7:
 1313              	.LBB5:
 710:Drivers/STM32F0xx_HAL_Driver/Src/stm32f0xx_hal_pcd.c ****       PCD_CLEAR_RX_DTOG(hpcd->Instance, ep->num)
 1314              		.loc 1 710 7 is_stmt 1 discriminator 2 view .LVU294
 1315 01c8 4A08     		lsrs	r2, r1, #1
 1316 01ca 92B2     		uxth	r2, r2
 1317              	.LVL85:
 710:Drivers/STM32F0xx_HAL_Driver/Src/stm32f0xx_hal_pcd.c ****       PCD_CLEAR_RX_DTOG(hpcd->Instance, ep->num)
 1318              		.loc 1 710 7 discriminator 2 view .LVU295
 1319 01cc C907     		lsls	r1, r1, #31
ARM GAS  /tmp/cclz3j42.s 			page 39


 1320 01ce 01D5     		bpl	.L65
 710:Drivers/STM32F0xx_HAL_Driver/Src/stm32f0xx_hal_pcd.c ****       PCD_CLEAR_RX_DTOG(hpcd->Instance, ep->num)
 1321              		.loc 1 710 7 discriminator 6 view .LVU296
 1322 01d0 0132     		adds	r2, r2, #1
 1323              	.LVL86:
 710:Drivers/STM32F0xx_HAL_Driver/Src/stm32f0xx_hal_pcd.c ****       PCD_CLEAR_RX_DTOG(hpcd->Instance, ep->num)
 1324              		.loc 1 710 7 is_stmt 0 discriminator 6 view .LVU297
 1325 01d2 92B2     		uxth	r2, r2
 1326              	.LVL87:
 1327              	.L65:
 710:Drivers/STM32F0xx_HAL_Driver/Src/stm32f0xx_hal_pcd.c ****       PCD_CLEAR_RX_DTOG(hpcd->Instance, ep->num)
 1328              		.loc 1 710 7 is_stmt 1 discriminator 8 view .LVU298
 1329 01d4 9202     		lsls	r2, r2, #10
 1330              	.LVL88:
 710:Drivers/STM32F0xx_HAL_Driver/Src/stm32f0xx_hal_pcd.c ****       PCD_CLEAR_RX_DTOG(hpcd->Instance, ep->num)
 1331              		.loc 1 710 7 is_stmt 0 discriminator 8 view .LVU299
 1332 01d6 1A80     		strh	r2, [r3]
 1333 01d8 DAE7     		b	.L64
 1334              	.LVL89:
 1335              	.L58:
 710:Drivers/STM32F0xx_HAL_Driver/Src/stm32f0xx_hal_pcd.c ****       PCD_CLEAR_RX_DTOG(hpcd->Instance, ep->num)
 1336              		.loc 1 710 7 discriminator 8 view .LVU300
 1337              	.LBE5:
 1338              	.LBE7:
 720:Drivers/STM32F0xx_HAL_Driver/Src/stm32f0xx_hal_pcd.c ****     /*Set buffer address for double buffered mode*/
 1339              		.loc 1 720 5 is_stmt 1 view .LVU301
 1340 01da 2378     		ldrb	r3, [r4]
 1341 01dc 9B00     		lsls	r3, r3, #2
 1342 01de 0268     		ldr	r2, [r0]
 1343 01e0 9446     		mov	ip, r2
 1344 01e2 6344     		add	r3, r3, ip
 1345 01e4 1A88     		ldrh	r2, [r3]
 1346 01e6 5949     		ldr	r1, .L74+40
 1347 01e8 1140     		ands	r1, r2
 1348 01ea 594A     		ldr	r2, .L74+44
 1349 01ec 0A43     		orrs	r2, r1
 1350 01ee 1A80     		strh	r2, [r3]
 722:Drivers/STM32F0xx_HAL_Driver/Src/stm32f0xx_hal_pcd.c ****     
 1351              		.loc 1 722 5 view .LVU302
 1352 01f0 E288     		ldrh	r2, [r4, #6]
 1353 01f2 0568     		ldr	r5, [r0]
 1354 01f4 5027     		movs	r7, #80
 1355 01f6 EB5B     		ldrh	r3, [r5, r7]
 1356 01f8 2178     		ldrb	r1, [r4]
 1357 01fa C900     		lsls	r1, r1, #3
 1358 01fc 5B18     		adds	r3, r3, r1
 1359 01fe 5B19     		adds	r3, r3, r5
 1360 0200 8021     		movs	r1, #128
 1361 0202 C900     		lsls	r1, r1, #3
 1362 0204 8C46     		mov	ip, r1
 1363 0206 6344     		add	r3, r3, ip
 1364 0208 0126     		movs	r6, #1
 1365 020a B243     		bics	r2, r6
 1366 020c 1A80     		strh	r2, [r3]
 722:Drivers/STM32F0xx_HAL_Driver/Src/stm32f0xx_hal_pcd.c ****     
 1367              		.loc 1 722 5 view .LVU303
 1368 020e 2289     		ldrh	r2, [r4, #8]
ARM GAS  /tmp/cclz3j42.s 			page 40


 1369 0210 0568     		ldr	r5, [r0]
 1370 0212 EB5B     		ldrh	r3, [r5, r7]
 1371 0214 2178     		ldrb	r1, [r4]
 1372 0216 C900     		lsls	r1, r1, #3
 1373 0218 5B18     		adds	r3, r3, r1
 1374 021a 5B19     		adds	r3, r3, r5
 1375 021c 4649     		ldr	r1, .L74+20
 1376 021e 8C46     		mov	ip, r1
 1377 0220 6344     		add	r3, r3, ip
 1378 0222 B243     		bics	r2, r6
 1379 0224 1A80     		strh	r2, [r3]
 724:Drivers/STM32F0xx_HAL_Driver/Src/stm32f0xx_hal_pcd.c ****     {
 1380              		.loc 1 724 5 view .LVU304
 724:Drivers/STM32F0xx_HAL_Driver/Src/stm32f0xx_hal_pcd.c ****     {
 1381              		.loc 1 724 11 is_stmt 0 view .LVU305
 1382 0226 6378     		ldrb	r3, [r4, #1]
 724:Drivers/STM32F0xx_HAL_Driver/Src/stm32f0xx_hal_pcd.c ****     {
 1383              		.loc 1 724 8 view .LVU306
 1384 0228 002B     		cmp	r3, #0
 1385 022a 3DD1     		bne	.L67
 727:Drivers/STM32F0xx_HAL_Driver/Src/stm32f0xx_hal_pcd.c ****       PCD_CLEAR_TX_DTOG(hpcd->Instance, ep->num)
 1386              		.loc 1 727 7 is_stmt 1 view .LVU307
 1387 022c 2378     		ldrb	r3, [r4]
 1388 022e 9B00     		lsls	r3, r3, #2
 1389 0230 0268     		ldr	r2, [r0]
 1390 0232 9446     		mov	ip, r2
 1391 0234 6344     		add	r3, r3, ip
 1392 0236 1A88     		ldrh	r2, [r3]
 1393 0238 5104     		lsls	r1, r2, #17
 1394 023a 04D5     		bpl	.L68
 727:Drivers/STM32F0xx_HAL_Driver/Src/stm32f0xx_hal_pcd.c ****       PCD_CLEAR_TX_DTOG(hpcd->Instance, ep->num)
 1395              		.loc 1 727 7 discriminator 1 view .LVU308
 1396 023c 3949     		ldr	r1, .L74
 1397 023e 0A40     		ands	r2, r1
 1398 0240 4049     		ldr	r1, .L74+32
 1399 0242 0A43     		orrs	r2, r1
 1400 0244 1A80     		strh	r2, [r3]
 1401              	.L68:
 728:Drivers/STM32F0xx_HAL_Driver/Src/stm32f0xx_hal_pcd.c ****       
 1402              		.loc 1 728 7 view .LVU309
 1403 0246 2378     		ldrb	r3, [r4]
 1404 0248 9B00     		lsls	r3, r3, #2
 1405 024a 0268     		ldr	r2, [r0]
 1406 024c 9446     		mov	ip, r2
 1407 024e 6344     		add	r3, r3, ip
 1408 0250 1A88     		ldrh	r2, [r3]
 1409 0252 5106     		lsls	r1, r2, #25
 1410 0254 04D5     		bpl	.L69
 728:Drivers/STM32F0xx_HAL_Driver/Src/stm32f0xx_hal_pcd.c ****       
 1411              		.loc 1 728 7 discriminator 1 view .LVU310
 1412 0256 3349     		ldr	r1, .L74
 1413 0258 0A40     		ands	r2, r1
 1414 025a 3449     		ldr	r1, .L74+8
 1415 025c 0A43     		orrs	r2, r1
 1416 025e 1A80     		strh	r2, [r3]
 1417              	.L69:
 731:Drivers/STM32F0xx_HAL_Driver/Src/stm32f0xx_hal_pcd.c ****       
ARM GAS  /tmp/cclz3j42.s 			page 41


 1418              		.loc 1 731 7 view .LVU311
 1419 0260 2378     		ldrb	r3, [r4]
 1420 0262 9B00     		lsls	r3, r3, #2
 1421 0264 0268     		ldr	r2, [r0]
 1422 0266 9446     		mov	ip, r2
 1423 0268 6344     		add	r3, r3, ip
 1424 026a 1A88     		ldrh	r2, [r3]
 1425 026c 2D49     		ldr	r1, .L74
 1426 026e 1140     		ands	r1, r2
 1427 0270 2E4A     		ldr	r2, .L74+8
 1428 0272 0A43     		orrs	r2, r1
 1429 0274 1A80     		strh	r2, [r3]
 1430              	.LBB8:
 733:Drivers/STM32F0xx_HAL_Driver/Src/stm32f0xx_hal_pcd.c ****       PCD_SET_EP_TX_STATUS(hpcd->Instance, ep->num, USB_EP_TX_DIS)
 1431              		.loc 1 733 7 view .LVU312
 733:Drivers/STM32F0xx_HAL_Driver/Src/stm32f0xx_hal_pcd.c ****       PCD_SET_EP_TX_STATUS(hpcd->Instance, ep->num, USB_EP_TX_DIS)
 1432              		.loc 1 733 7 view .LVU313
 1433 0276 2178     		ldrb	r1, [r4]
 1434 0278 8900     		lsls	r1, r1, #2
 1435 027a 0368     		ldr	r3, [r0]
 1436 027c 9C46     		mov	ip, r3
 1437 027e 6144     		add	r1, r1, ip
 1438 0280 0B88     		ldrh	r3, [r1]
 1439 0282 314A     		ldr	r2, .L74+36
 1440 0284 1A40     		ands	r2, r3
 1441              	.LVL90:
 733:Drivers/STM32F0xx_HAL_Driver/Src/stm32f0xx_hal_pcd.c ****       PCD_SET_EP_TX_STATUS(hpcd->Instance, ep->num, USB_EP_TX_DIS)
 1442              		.loc 1 733 7 view .LVU314
 733:Drivers/STM32F0xx_HAL_Driver/Src/stm32f0xx_hal_pcd.c ****       PCD_SET_EP_TX_STATUS(hpcd->Instance, ep->num, USB_EP_TX_DIS)
 1443              		.loc 1 733 7 view .LVU315
 733:Drivers/STM32F0xx_HAL_Driver/Src/stm32f0xx_hal_pcd.c ****       PCD_SET_EP_TX_STATUS(hpcd->Instance, ep->num, USB_EP_TX_DIS)
 1444              		.loc 1 733 7 view .LVU316
 733:Drivers/STM32F0xx_HAL_Driver/Src/stm32f0xx_hal_pcd.c ****       PCD_SET_EP_TX_STATUS(hpcd->Instance, ep->num, USB_EP_TX_DIS)
 1445              		.loc 1 733 7 view .LVU317
 1446 0286 C023     		movs	r3, #192
 1447 0288 9B01     		lsls	r3, r3, #6
 1448 028a 5340     		eors	r3, r2
 1449              	.LVL91:
 733:Drivers/STM32F0xx_HAL_Driver/Src/stm32f0xx_hal_pcd.c ****       PCD_SET_EP_TX_STATUS(hpcd->Instance, ep->num, USB_EP_TX_DIS)
 1450              		.loc 1 733 7 view .LVU318
 1451 028c 264A     		ldr	r2, .L74+4
 1452 028e 1343     		orrs	r3, r2
 1453              	.LVL92:
 733:Drivers/STM32F0xx_HAL_Driver/Src/stm32f0xx_hal_pcd.c ****       PCD_SET_EP_TX_STATUS(hpcd->Instance, ep->num, USB_EP_TX_DIS)
 1454              		.loc 1 733 7 is_stmt 0 view .LVU319
 1455 0290 0B80     		strh	r3, [r1]
 1456              	.LVL93:
 733:Drivers/STM32F0xx_HAL_Driver/Src/stm32f0xx_hal_pcd.c ****       PCD_SET_EP_TX_STATUS(hpcd->Instance, ep->num, USB_EP_TX_DIS)
 1457              		.loc 1 733 7 view .LVU320
 1458              	.LBE8:
 1459              	.LBB9:
 734:Drivers/STM32F0xx_HAL_Driver/Src/stm32f0xx_hal_pcd.c ****     }
 1460              		.loc 1 734 7 is_stmt 1 view .LVU321
 734:Drivers/STM32F0xx_HAL_Driver/Src/stm32f0xx_hal_pcd.c ****     }
 1461              		.loc 1 734 7 view .LVU322
 1462 0292 2378     		ldrb	r3, [r4]
 1463 0294 9B00     		lsls	r3, r3, #2
ARM GAS  /tmp/cclz3j42.s 			page 42


 1464 0296 0168     		ldr	r1, [r0]
 1465 0298 8C46     		mov	ip, r1
 1466 029a 6344     		add	r3, r3, ip
 1467 029c 1988     		ldrh	r1, [r3]
 1468 029e 244C     		ldr	r4, .L74+12
 1469              	.LVL94:
 734:Drivers/STM32F0xx_HAL_Driver/Src/stm32f0xx_hal_pcd.c ****     }
 1470              		.loc 1 734 7 is_stmt 0 view .LVU323
 1471 02a0 2140     		ands	r1, r4
 1472              	.LVL95:
 734:Drivers/STM32F0xx_HAL_Driver/Src/stm32f0xx_hal_pcd.c ****     }
 1473              		.loc 1 734 7 is_stmt 1 view .LVU324
 734:Drivers/STM32F0xx_HAL_Driver/Src/stm32f0xx_hal_pcd.c ****     }
 1474              		.loc 1 734 7 view .LVU325
 734:Drivers/STM32F0xx_HAL_Driver/Src/stm32f0xx_hal_pcd.c ****     }
 1475              		.loc 1 734 7 view .LVU326
 1476 02a2 0A43     		orrs	r2, r1
 1477 02a4 1A80     		strh	r2, [r3]
 1478              	.LBE9:
 1479 02a6 0FE7     		b	.L61
 1480              	.LVL96:
 1481              	.L67:
 739:Drivers/STM32F0xx_HAL_Driver/Src/stm32f0xx_hal_pcd.c ****       PCD_CLEAR_TX_DTOG(hpcd->Instance, ep->num)
 1482              		.loc 1 739 7 view .LVU327
 1483 02a8 2378     		ldrb	r3, [r4]
 1484 02aa 9B00     		lsls	r3, r3, #2
 1485 02ac 0268     		ldr	r2, [r0]
 1486 02ae 9446     		mov	ip, r2
 1487 02b0 6344     		add	r3, r3, ip
 1488 02b2 1A88     		ldrh	r2, [r3]
 1489 02b4 5104     		lsls	r1, r2, #17
 1490 02b6 04D5     		bpl	.L70
 739:Drivers/STM32F0xx_HAL_Driver/Src/stm32f0xx_hal_pcd.c ****       PCD_CLEAR_TX_DTOG(hpcd->Instance, ep->num)
 1491              		.loc 1 739 7 discriminator 1 view .LVU328
 1492 02b8 1A49     		ldr	r1, .L74
 1493 02ba 0A40     		ands	r2, r1
 1494 02bc 2149     		ldr	r1, .L74+32
 1495 02be 0A43     		orrs	r2, r1
 1496 02c0 1A80     		strh	r2, [r3]
 1497              	.L70:
 740:Drivers/STM32F0xx_HAL_Driver/Src/stm32f0xx_hal_pcd.c ****       PCD_RX_DTOG(hpcd->Instance, ep->num);
 1498              		.loc 1 740 7 view .LVU329
 1499 02c2 2378     		ldrb	r3, [r4]
 1500 02c4 9B00     		lsls	r3, r3, #2
 1501 02c6 0268     		ldr	r2, [r0]
 1502 02c8 9446     		mov	ip, r2
 1503 02ca 6344     		add	r3, r3, ip
 1504 02cc 1A88     		ldrh	r2, [r3]
 1505 02ce 5106     		lsls	r1, r2, #25
 1506 02d0 04D5     		bpl	.L71
 740:Drivers/STM32F0xx_HAL_Driver/Src/stm32f0xx_hal_pcd.c ****       PCD_RX_DTOG(hpcd->Instance, ep->num);
 1507              		.loc 1 740 7 discriminator 1 view .LVU330
 1508 02d2 1449     		ldr	r1, .L74
 1509 02d4 0A40     		ands	r2, r1
 1510 02d6 1549     		ldr	r1, .L74+8
 1511 02d8 0A43     		orrs	r2, r1
 1512 02da 1A80     		strh	r2, [r3]
ARM GAS  /tmp/cclz3j42.s 			page 43


 1513              	.L71:
 741:Drivers/STM32F0xx_HAL_Driver/Src/stm32f0xx_hal_pcd.c ****       /* Configure DISABLE status for the Endpoint*/
 1514              		.loc 1 741 7 view .LVU331
 1515 02dc 2378     		ldrb	r3, [r4]
 1516 02de 9B00     		lsls	r3, r3, #2
 1517 02e0 0268     		ldr	r2, [r0]
 1518 02e2 9446     		mov	ip, r2
 1519 02e4 6344     		add	r3, r3, ip
 1520 02e6 1A88     		ldrh	r2, [r3]
 1521 02e8 0E49     		ldr	r1, .L74
 1522 02ea 1140     		ands	r1, r2
 1523 02ec 154A     		ldr	r2, .L74+32
 1524 02ee 0A43     		orrs	r2, r1
 1525 02f0 1A80     		strh	r2, [r3]
 1526              	.LBB10:
 743:Drivers/STM32F0xx_HAL_Driver/Src/stm32f0xx_hal_pcd.c ****       PCD_SET_EP_RX_STATUS(hpcd->Instance, ep->num, USB_EP_RX_DIS)
 1527              		.loc 1 743 7 view .LVU332
 743:Drivers/STM32F0xx_HAL_Driver/Src/stm32f0xx_hal_pcd.c ****       PCD_SET_EP_RX_STATUS(hpcd->Instance, ep->num, USB_EP_RX_DIS)
 1528              		.loc 1 743 7 view .LVU333
 1529 02f2 2178     		ldrb	r1, [r4]
 1530 02f4 8900     		lsls	r1, r1, #2
 1531 02f6 0368     		ldr	r3, [r0]
 1532 02f8 9C46     		mov	ip, r3
 1533 02fa 6144     		add	r1, r1, ip
 1534 02fc 0B88     		ldrh	r3, [r1]
 1535 02fe 0C4A     		ldr	r2, .L74+12
 1536 0300 1340     		ands	r3, r2
 1537              	.LVL97:
 743:Drivers/STM32F0xx_HAL_Driver/Src/stm32f0xx_hal_pcd.c ****       PCD_SET_EP_RX_STATUS(hpcd->Instance, ep->num, USB_EP_RX_DIS)
 1538              		.loc 1 743 7 view .LVU334
 743:Drivers/STM32F0xx_HAL_Driver/Src/stm32f0xx_hal_pcd.c ****       PCD_SET_EP_RX_STATUS(hpcd->Instance, ep->num, USB_EP_RX_DIS)
 1539              		.loc 1 743 7 view .LVU335
 743:Drivers/STM32F0xx_HAL_Driver/Src/stm32f0xx_hal_pcd.c ****       PCD_SET_EP_RX_STATUS(hpcd->Instance, ep->num, USB_EP_RX_DIS)
 1540              		.loc 1 743 7 view .LVU336
 1541 0302 094A     		ldr	r2, .L74+4
 1542 0304 1343     		orrs	r3, r2
 1543              	.LVL98:
 743:Drivers/STM32F0xx_HAL_Driver/Src/stm32f0xx_hal_pcd.c ****       PCD_SET_EP_RX_STATUS(hpcd->Instance, ep->num, USB_EP_RX_DIS)
 1544              		.loc 1 743 7 is_stmt 0 view .LVU337
 1545 0306 0B80     		strh	r3, [r1]
 1546              	.LVL99:
 743:Drivers/STM32F0xx_HAL_Driver/Src/stm32f0xx_hal_pcd.c ****       PCD_SET_EP_RX_STATUS(hpcd->Instance, ep->num, USB_EP_RX_DIS)
 1547              		.loc 1 743 7 view .LVU338
 1548              	.LBE10:
 1549              	.LBB11:
 744:Drivers/STM32F0xx_HAL_Driver/Src/stm32f0xx_hal_pcd.c ****     }
 1550              		.loc 1 744 7 is_stmt 1 view .LVU339
 744:Drivers/STM32F0xx_HAL_Driver/Src/stm32f0xx_hal_pcd.c ****     }
 1551              		.loc 1 744 7 view .LVU340
 1552 0308 2378     		ldrb	r3, [r4]
 1553 030a 9B00     		lsls	r3, r3, #2
 1554 030c 0168     		ldr	r1, [r0]
 1555 030e 8C46     		mov	ip, r1
 1556 0310 6344     		add	r3, r3, ip
 1557 0312 1988     		ldrh	r1, [r3]
 1558 0314 0C4C     		ldr	r4, .L74+36
 1559              	.LVL100:
ARM GAS  /tmp/cclz3j42.s 			page 44


 744:Drivers/STM32F0xx_HAL_Driver/Src/stm32f0xx_hal_pcd.c ****     }
 1560              		.loc 1 744 7 is_stmt 0 view .LVU341
 1561 0316 2140     		ands	r1, r4
 1562              	.LVL101:
 744:Drivers/STM32F0xx_HAL_Driver/Src/stm32f0xx_hal_pcd.c ****     }
 1563              		.loc 1 744 7 is_stmt 1 view .LVU342
 744:Drivers/STM32F0xx_HAL_Driver/Src/stm32f0xx_hal_pcd.c ****     }
 1564              		.loc 1 744 7 view .LVU343
 744:Drivers/STM32F0xx_HAL_Driver/Src/stm32f0xx_hal_pcd.c ****     }
 1565              		.loc 1 744 7 view .LVU344
 1566 0318 0A43     		orrs	r2, r1
 1567 031a 1A80     		strh	r2, [r3]
 1568 031c D4E6     		b	.L61
 1569              	.LVL102:
 1570              	.L72:
 744:Drivers/STM32F0xx_HAL_Driver/Src/stm32f0xx_hal_pcd.c ****     }
 1571              		.loc 1 744 7 is_stmt 0 view .LVU345
 1572              	.LBE11:
 672:Drivers/STM32F0xx_HAL_Driver/Src/stm32f0xx_hal_pcd.c **** 
 1573              		.loc 1 672 3 view .LVU346
 1574 031e 0220     		movs	r0, #2
 1575              	.LVL103:
 672:Drivers/STM32F0xx_HAL_Driver/Src/stm32f0xx_hal_pcd.c **** 
 1576              		.loc 1 672 3 view .LVU347
 1577 0320 D7E6     		b	.L52
 1578              	.L75:
 1579 0322 C046     		.align	2
 1580              	.L74:
 1581 0324 0F0F0000 		.word	3855
 1582 0328 8080FFFF 		.word	-32640
 1583 032c C080FFFF 		.word	-32576
 1584 0330 BF8FFFFF 		.word	-28737
 1585 0334 8F89FFFF 		.word	-30321
 1586 0338 04040000 		.word	1028
 1587 033c 06040000 		.word	1030
 1588 0340 0080FFFF 		.word	-32768
 1589 0344 80C0FFFF 		.word	-16256
 1590 0348 8FBFFFFF 		.word	-16497
 1591 034c 0F0E0000 		.word	3599
 1592 0350 8081FFFF 		.word	-32384
 1593              		.cfi_endproc
 1594              	.LFE58:
 1596              		.section	.text.HAL_PCD_EP_Close,"ax",%progbits
 1597              		.align	1
 1598              		.global	HAL_PCD_EP_Close
 1599              		.syntax unified
 1600              		.code	16
 1601              		.thumb_func
 1602              		.fpu softvfp
 1604              	HAL_PCD_EP_Close:
 1605              	.LVL104:
 1606              	.LFB59:
 751:Drivers/STM32F0xx_HAL_Driver/Src/stm32f0xx_hal_pcd.c **** 
 752:Drivers/STM32F0xx_HAL_Driver/Src/stm32f0xx_hal_pcd.c **** 
 753:Drivers/STM32F0xx_HAL_Driver/Src/stm32f0xx_hal_pcd.c **** /**
 754:Drivers/STM32F0xx_HAL_Driver/Src/stm32f0xx_hal_pcd.c ****   * @brief  Deactivate an endpoint
 755:Drivers/STM32F0xx_HAL_Driver/Src/stm32f0xx_hal_pcd.c ****   * @param  hpcd PCD handle
ARM GAS  /tmp/cclz3j42.s 			page 45


 756:Drivers/STM32F0xx_HAL_Driver/Src/stm32f0xx_hal_pcd.c ****   * @param  ep_addr endpoint address
 757:Drivers/STM32F0xx_HAL_Driver/Src/stm32f0xx_hal_pcd.c ****   * @retval HAL status
 758:Drivers/STM32F0xx_HAL_Driver/Src/stm32f0xx_hal_pcd.c ****   */
 759:Drivers/STM32F0xx_HAL_Driver/Src/stm32f0xx_hal_pcd.c **** HAL_StatusTypeDef HAL_PCD_EP_Close(PCD_HandleTypeDef *hpcd, uint8_t ep_addr)
 760:Drivers/STM32F0xx_HAL_Driver/Src/stm32f0xx_hal_pcd.c **** {  
 1607              		.loc 1 760 1 is_stmt 1 view -0
 1608              		.cfi_startproc
 1609              		@ args = 0, pretend = 0, frame = 0
 1610              		@ frame_needed = 0, uses_anonymous_args = 0
 1611              		.loc 1 760 1 is_stmt 0 view .LVU349
 1612 0000 30B5     		push	{r4, r5, lr}
 1613              	.LCFI6:
 1614              		.cfi_def_cfa_offset 12
 1615              		.cfi_offset 4, -12
 1616              		.cfi_offset 5, -8
 1617              		.cfi_offset 14, -4
 761:Drivers/STM32F0xx_HAL_Driver/Src/stm32f0xx_hal_pcd.c ****   PCD_EPTypeDef *ep;
 1618              		.loc 1 761 3 is_stmt 1 view .LVU350
 762:Drivers/STM32F0xx_HAL_Driver/Src/stm32f0xx_hal_pcd.c ****   
 763:Drivers/STM32F0xx_HAL_Driver/Src/stm32f0xx_hal_pcd.c ****   if ((ep_addr & 0x80U) == 0x80U)
 1619              		.loc 1 763 3 view .LVU351
 1620              		.loc 1 763 25 is_stmt 0 view .LVU352
 1621 0002 4AB2     		sxtb	r2, r1
 1622              		.loc 1 763 6 view .LVU353
 1623 0004 002A     		cmp	r2, #0
 1624 0006 3ADB     		blt	.L91
 764:Drivers/STM32F0xx_HAL_Driver/Src/stm32f0xx_hal_pcd.c ****   {
 765:Drivers/STM32F0xx_HAL_Driver/Src/stm32f0xx_hal_pcd.c ****     ep = &hpcd->IN_ep[ep_addr & 0x7FU];
 766:Drivers/STM32F0xx_HAL_Driver/Src/stm32f0xx_hal_pcd.c ****   }
 767:Drivers/STM32F0xx_HAL_Driver/Src/stm32f0xx_hal_pcd.c ****   else
 768:Drivers/STM32F0xx_HAL_Driver/Src/stm32f0xx_hal_pcd.c ****   {
 769:Drivers/STM32F0xx_HAL_Driver/Src/stm32f0xx_hal_pcd.c ****     ep = &hpcd->OUT_ep[ep_addr & 0x7FU];
 1625              		.loc 1 769 5 is_stmt 1 view .LVU354
 1626              		.loc 1 769 32 is_stmt 0 view .LVU355
 1627 0008 7F23     		movs	r3, #127
 1628 000a 0B40     		ands	r3, r1
 1629              		.loc 1 769 8 view .LVU356
 1630 000c DD00     		lsls	r5, r3, #3
 1631 000e ED1A     		subs	r5, r5, r3
 1632 0010 AB00     		lsls	r3, r5, #2
 1633 0012 0933     		adds	r3, r3, #9
 1634 0014 FF33     		adds	r3, r3, #255
 1635 0016 C318     		adds	r3, r0, r3
 1636              	.LVL105:
 1637              	.L78:
 770:Drivers/STM32F0xx_HAL_Driver/Src/stm32f0xx_hal_pcd.c ****   }
 771:Drivers/STM32F0xx_HAL_Driver/Src/stm32f0xx_hal_pcd.c ****   ep->num   = ep_addr & 0x7FU;
 1638              		.loc 1 771 3 is_stmt 1 view .LVU357
 1639              		.loc 1 771 23 is_stmt 0 view .LVU358
 1640 0018 7F24     		movs	r4, #127
 1641 001a 0C40     		ands	r4, r1
 1642              		.loc 1 771 13 view .LVU359
 1643 001c 1C70     		strb	r4, [r3]
 772:Drivers/STM32F0xx_HAL_Driver/Src/stm32f0xx_hal_pcd.c ****   
 773:Drivers/STM32F0xx_HAL_Driver/Src/stm32f0xx_hal_pcd.c ****   ep->is_in = (0x80U & ep_addr) != 0U;
 1644              		.loc 1 773 3 is_stmt 1 view .LVU360
 1645              		.loc 1 773 33 is_stmt 0 view .LVU361
ARM GAS  /tmp/cclz3j42.s 			page 46


 1646 001e D20F     		lsrs	r2, r2, #31
 1647              		.loc 1 773 13 view .LVU362
 1648 0020 5A70     		strb	r2, [r3, #1]
 774:Drivers/STM32F0xx_HAL_Driver/Src/stm32f0xx_hal_pcd.c ****   
 775:Drivers/STM32F0xx_HAL_Driver/Src/stm32f0xx_hal_pcd.c ****   __HAL_LOCK(hpcd); 
 1649              		.loc 1 775 3 is_stmt 1 view .LVU363
 1650              		.loc 1 775 3 view .LVU364
 1651 0022 F422     		movs	r2, #244
 1652 0024 5200     		lsls	r2, r2, #1
 1653 0026 825C     		ldrb	r2, [r0, r2]
 1654 0028 012A     		cmp	r2, #1
 1655 002a 00D1     		bne	.LCB1561
 1656 002c C1E0     		b	.L90	@long jump
 1657              	.LCB1561:
 1658              		.loc 1 775 3 discriminator 2 view .LVU365
 1659 002e F422     		movs	r2, #244
 1660 0030 5200     		lsls	r2, r2, #1
 1661 0032 0121     		movs	r1, #1
 1662              	.LVL106:
 1663              		.loc 1 775 3 is_stmt 0 discriminator 2 view .LVU366
 1664 0034 8154     		strb	r1, [r0, r2]
 776:Drivers/STM32F0xx_HAL_Driver/Src/stm32f0xx_hal_pcd.c **** 
 777:Drivers/STM32F0xx_HAL_Driver/Src/stm32f0xx_hal_pcd.c ****   if (ep->doublebuffer == 0U) 
 1665              		.loc 1 777 3 is_stmt 1 discriminator 2 view .LVU367
 1666              		.loc 1 777 9 is_stmt 0 discriminator 2 view .LVU368
 1667 0036 9A7A     		ldrb	r2, [r3, #10]
 1668              		.loc 1 777 6 discriminator 2 view .LVU369
 1669 0038 002A     		cmp	r2, #0
 1670 003a 41D1     		bne	.L80
 778:Drivers/STM32F0xx_HAL_Driver/Src/stm32f0xx_hal_pcd.c ****   {
 779:Drivers/STM32F0xx_HAL_Driver/Src/stm32f0xx_hal_pcd.c ****     if (ep->is_in)
 1671              		.loc 1 779 5 is_stmt 1 view .LVU370
 1672              		.loc 1 779 11 is_stmt 0 view .LVU371
 1673 003c 5A78     		ldrb	r2, [r3, #1]
 1674              		.loc 1 779 8 view .LVU372
 1675 003e 002A     		cmp	r2, #0
 1676 0040 25D0     		beq	.L81
 780:Drivers/STM32F0xx_HAL_Driver/Src/stm32f0xx_hal_pcd.c ****     {
 781:Drivers/STM32F0xx_HAL_Driver/Src/stm32f0xx_hal_pcd.c ****       PCD_CLEAR_TX_DTOG(hpcd->Instance, ep->num)
 1677              		.loc 1 781 7 is_stmt 1 view .LVU373
 1678 0042 1A78     		ldrb	r2, [r3]
 1679 0044 9200     		lsls	r2, r2, #2
 1680 0046 0168     		ldr	r1, [r0]
 1681 0048 8C46     		mov	ip, r1
 1682 004a 6244     		add	r2, r2, ip
 1683 004c 1188     		ldrh	r1, [r2]
 1684 004e 4C06     		lsls	r4, r1, #25
 1685 0050 04D5     		bpl	.L82
 1686              		.loc 1 781 7 discriminator 1 view .LVU374
 1687 0052 594C     		ldr	r4, .L92
 1688 0054 2140     		ands	r1, r4
 1689 0056 594C     		ldr	r4, .L92+4
 1690 0058 2143     		orrs	r1, r4
 1691 005a 1180     		strh	r1, [r2]
 1692              	.L82:
 1693              	.LBB12:
 782:Drivers/STM32F0xx_HAL_Driver/Src/stm32f0xx_hal_pcd.c ****       /* Configure DISABLE status for the Endpoint*/
ARM GAS  /tmp/cclz3j42.s 			page 47


 783:Drivers/STM32F0xx_HAL_Driver/Src/stm32f0xx_hal_pcd.c ****       PCD_SET_EP_TX_STATUS(hpcd->Instance, ep->num, USB_EP_TX_DIS)
 1694              		.loc 1 783 7 view .LVU375
 1695              		.loc 1 783 7 view .LVU376
 1696 005c 1B78     		ldrb	r3, [r3]
 1697              	.LVL107:
 1698              		.loc 1 783 7 is_stmt 0 view .LVU377
 1699 005e 9B00     		lsls	r3, r3, #2
 1700 0060 0268     		ldr	r2, [r0]
 1701 0062 9446     		mov	ip, r2
 1702 0064 6344     		add	r3, r3, ip
 1703 0066 1A88     		ldrh	r2, [r3]
 1704 0068 5549     		ldr	r1, .L92+8
 1705 006a 1140     		ands	r1, r2
 1706              	.LVL108:
 1707              		.loc 1 783 7 is_stmt 1 view .LVU378
 1708              		.loc 1 783 7 view .LVU379
 1709              		.loc 1 783 7 view .LVU380
 1710 006c 554A     		ldr	r2, .L92+12
 1711 006e 0A43     		orrs	r2, r1
 1712 0070 1A80     		strh	r2, [r3]
 1713              	.LVL109:
 1714              	.L83:
 1715              		.loc 1 783 7 is_stmt 0 view .LVU381
 1716              	.LBE12:
 784:Drivers/STM32F0xx_HAL_Driver/Src/stm32f0xx_hal_pcd.c ****     }
 785:Drivers/STM32F0xx_HAL_Driver/Src/stm32f0xx_hal_pcd.c ****     else
 786:Drivers/STM32F0xx_HAL_Driver/Src/stm32f0xx_hal_pcd.c ****     {
 787:Drivers/STM32F0xx_HAL_Driver/Src/stm32f0xx_hal_pcd.c ****       PCD_CLEAR_RX_DTOG(hpcd->Instance, ep->num)
 788:Drivers/STM32F0xx_HAL_Driver/Src/stm32f0xx_hal_pcd.c ****       /* Configure DISABLE status for the Endpoint*/
 789:Drivers/STM32F0xx_HAL_Driver/Src/stm32f0xx_hal_pcd.c ****       PCD_SET_EP_RX_STATUS(hpcd->Instance, ep->num, USB_EP_RX_DIS)
 790:Drivers/STM32F0xx_HAL_Driver/Src/stm32f0xx_hal_pcd.c ****     }
 791:Drivers/STM32F0xx_HAL_Driver/Src/stm32f0xx_hal_pcd.c ****   }
 792:Drivers/STM32F0xx_HAL_Driver/Src/stm32f0xx_hal_pcd.c ****   /*Double Buffer*/
 793:Drivers/STM32F0xx_HAL_Driver/Src/stm32f0xx_hal_pcd.c ****   else
 794:Drivers/STM32F0xx_HAL_Driver/Src/stm32f0xx_hal_pcd.c ****   { 
 795:Drivers/STM32F0xx_HAL_Driver/Src/stm32f0xx_hal_pcd.c ****     if (ep->is_in==0U)
 796:Drivers/STM32F0xx_HAL_Driver/Src/stm32f0xx_hal_pcd.c ****     {
 797:Drivers/STM32F0xx_HAL_Driver/Src/stm32f0xx_hal_pcd.c ****       /* Clear the data toggle bits for the endpoint IN/OUT*/
 798:Drivers/STM32F0xx_HAL_Driver/Src/stm32f0xx_hal_pcd.c ****       PCD_CLEAR_RX_DTOG(hpcd->Instance, ep->num)
 799:Drivers/STM32F0xx_HAL_Driver/Src/stm32f0xx_hal_pcd.c ****       PCD_CLEAR_TX_DTOG(hpcd->Instance, ep->num)
 800:Drivers/STM32F0xx_HAL_Driver/Src/stm32f0xx_hal_pcd.c ****       
 801:Drivers/STM32F0xx_HAL_Driver/Src/stm32f0xx_hal_pcd.c ****       /* Reset value of the data toggle bits for the endpoint out*/
 802:Drivers/STM32F0xx_HAL_Driver/Src/stm32f0xx_hal_pcd.c ****       PCD_TX_DTOG(hpcd->Instance, ep->num);
 803:Drivers/STM32F0xx_HAL_Driver/Src/stm32f0xx_hal_pcd.c ****       
 804:Drivers/STM32F0xx_HAL_Driver/Src/stm32f0xx_hal_pcd.c ****       PCD_SET_EP_RX_STATUS(hpcd->Instance, ep->num, USB_EP_RX_DIS)
 805:Drivers/STM32F0xx_HAL_Driver/Src/stm32f0xx_hal_pcd.c ****       PCD_SET_EP_TX_STATUS(hpcd->Instance, ep->num, USB_EP_TX_DIS)
 806:Drivers/STM32F0xx_HAL_Driver/Src/stm32f0xx_hal_pcd.c ****     }
 807:Drivers/STM32F0xx_HAL_Driver/Src/stm32f0xx_hal_pcd.c ****     else
 808:Drivers/STM32F0xx_HAL_Driver/Src/stm32f0xx_hal_pcd.c ****     {
 809:Drivers/STM32F0xx_HAL_Driver/Src/stm32f0xx_hal_pcd.c ****       /* Clear the data toggle bits for the endpoint IN/OUT*/
 810:Drivers/STM32F0xx_HAL_Driver/Src/stm32f0xx_hal_pcd.c ****       PCD_CLEAR_RX_DTOG(hpcd->Instance, ep->num)
 811:Drivers/STM32F0xx_HAL_Driver/Src/stm32f0xx_hal_pcd.c ****       PCD_CLEAR_TX_DTOG(hpcd->Instance, ep->num)
 812:Drivers/STM32F0xx_HAL_Driver/Src/stm32f0xx_hal_pcd.c ****       PCD_RX_DTOG(hpcd->Instance, ep->num);
 813:Drivers/STM32F0xx_HAL_Driver/Src/stm32f0xx_hal_pcd.c ****       /* Configure DISABLE status for the Endpoint*/
 814:Drivers/STM32F0xx_HAL_Driver/Src/stm32f0xx_hal_pcd.c ****       PCD_SET_EP_TX_STATUS(hpcd->Instance, ep->num, USB_EP_TX_DIS)
 815:Drivers/STM32F0xx_HAL_Driver/Src/stm32f0xx_hal_pcd.c ****       PCD_SET_EP_RX_STATUS(hpcd->Instance, ep->num, USB_EP_RX_DIS)
 816:Drivers/STM32F0xx_HAL_Driver/Src/stm32f0xx_hal_pcd.c ****     }
ARM GAS  /tmp/cclz3j42.s 			page 48


 817:Drivers/STM32F0xx_HAL_Driver/Src/stm32f0xx_hal_pcd.c ****   } 
 818:Drivers/STM32F0xx_HAL_Driver/Src/stm32f0xx_hal_pcd.c ****   
 819:Drivers/STM32F0xx_HAL_Driver/Src/stm32f0xx_hal_pcd.c ****   __HAL_UNLOCK(hpcd);   
 1717              		.loc 1 819 3 is_stmt 1 view .LVU382
 1718              		.loc 1 819 3 view .LVU383
 1719 0072 F423     		movs	r3, #244
 1720 0074 5B00     		lsls	r3, r3, #1
 1721 0076 0022     		movs	r2, #0
 1722 0078 C254     		strb	r2, [r0, r3]
 820:Drivers/STM32F0xx_HAL_Driver/Src/stm32f0xx_hal_pcd.c ****   return HAL_OK;
 1723              		.loc 1 820 3 view .LVU384
 1724              		.loc 1 820 10 is_stmt 0 view .LVU385
 1725 007a 0020     		movs	r0, #0
 1726              	.LVL110:
 1727              	.L79:
 821:Drivers/STM32F0xx_HAL_Driver/Src/stm32f0xx_hal_pcd.c **** }
 1728              		.loc 1 821 1 view .LVU386
 1729              		@ sp needed
 1730 007c 30BD     		pop	{r4, r5, pc}
 1731              	.LVL111:
 1732              	.L91:
 765:Drivers/STM32F0xx_HAL_Driver/Src/stm32f0xx_hal_pcd.c ****   }
 1733              		.loc 1 765 5 is_stmt 1 view .LVU387
 765:Drivers/STM32F0xx_HAL_Driver/Src/stm32f0xx_hal_pcd.c ****   }
 1734              		.loc 1 765 31 is_stmt 0 view .LVU388
 1735 007e 7F23     		movs	r3, #127
 1736 0080 0B40     		ands	r3, r1
 765:Drivers/STM32F0xx_HAL_Driver/Src/stm32f0xx_hal_pcd.c ****   }
 1737              		.loc 1 765 8 view .LVU389
 1738 0082 DC00     		lsls	r4, r3, #3
 1739 0084 E41A     		subs	r4, r4, r3
 1740 0086 A300     		lsls	r3, r4, #2
 1741 0088 2833     		adds	r3, r3, #40
 1742 008a C318     		adds	r3, r0, r3
 1743              	.LVL112:
 765:Drivers/STM32F0xx_HAL_Driver/Src/stm32f0xx_hal_pcd.c ****   }
 1744              		.loc 1 765 8 view .LVU390
 1745 008c C4E7     		b	.L78
 1746              	.LVL113:
 1747              	.L81:
 787:Drivers/STM32F0xx_HAL_Driver/Src/stm32f0xx_hal_pcd.c ****       /* Configure DISABLE status for the Endpoint*/
 1748              		.loc 1 787 7 is_stmt 1 view .LVU391
 1749 008e 1A78     		ldrb	r2, [r3]
 1750 0090 9200     		lsls	r2, r2, #2
 1751 0092 0168     		ldr	r1, [r0]
 1752 0094 8C46     		mov	ip, r1
 1753 0096 6244     		add	r2, r2, ip
 1754 0098 1188     		ldrh	r1, [r2]
 1755 009a 4C04     		lsls	r4, r1, #17
 1756 009c 04D5     		bpl	.L84
 787:Drivers/STM32F0xx_HAL_Driver/Src/stm32f0xx_hal_pcd.c ****       /* Configure DISABLE status for the Endpoint*/
 1757              		.loc 1 787 7 discriminator 1 view .LVU392
 1758 009e 464C     		ldr	r4, .L92
 1759 00a0 2140     		ands	r1, r4
 1760 00a2 494C     		ldr	r4, .L92+16
 1761 00a4 2143     		orrs	r1, r4
 1762 00a6 1180     		strh	r1, [r2]
ARM GAS  /tmp/cclz3j42.s 			page 49


 1763              	.L84:
 1764              	.LBB13:
 789:Drivers/STM32F0xx_HAL_Driver/Src/stm32f0xx_hal_pcd.c ****     }
 1765              		.loc 1 789 7 view .LVU393
 789:Drivers/STM32F0xx_HAL_Driver/Src/stm32f0xx_hal_pcd.c ****     }
 1766              		.loc 1 789 7 view .LVU394
 1767 00a8 1B78     		ldrb	r3, [r3]
 1768              	.LVL114:
 789:Drivers/STM32F0xx_HAL_Driver/Src/stm32f0xx_hal_pcd.c ****     }
 1769              		.loc 1 789 7 is_stmt 0 view .LVU395
 1770 00aa 9B00     		lsls	r3, r3, #2
 1771 00ac 0268     		ldr	r2, [r0]
 1772 00ae 9446     		mov	ip, r2
 1773 00b0 6344     		add	r3, r3, ip
 1774 00b2 1A88     		ldrh	r2, [r3]
 1775 00b4 4549     		ldr	r1, .L92+20
 1776 00b6 1140     		ands	r1, r2
 1777              	.LVL115:
 789:Drivers/STM32F0xx_HAL_Driver/Src/stm32f0xx_hal_pcd.c ****     }
 1778              		.loc 1 789 7 is_stmt 1 view .LVU396
 789:Drivers/STM32F0xx_HAL_Driver/Src/stm32f0xx_hal_pcd.c ****     }
 1779              		.loc 1 789 7 view .LVU397
 789:Drivers/STM32F0xx_HAL_Driver/Src/stm32f0xx_hal_pcd.c ****     }
 1780              		.loc 1 789 7 view .LVU398
 1781 00b8 424A     		ldr	r2, .L92+12
 1782 00ba 0A43     		orrs	r2, r1
 1783 00bc 1A80     		strh	r2, [r3]
 1784 00be D8E7     		b	.L83
 1785              	.LVL116:
 1786              	.L80:
 789:Drivers/STM32F0xx_HAL_Driver/Src/stm32f0xx_hal_pcd.c ****     }
 1787              		.loc 1 789 7 is_stmt 0 view .LVU399
 1788              	.LBE13:
 795:Drivers/STM32F0xx_HAL_Driver/Src/stm32f0xx_hal_pcd.c ****     {
 1789              		.loc 1 795 5 is_stmt 1 view .LVU400
 795:Drivers/STM32F0xx_HAL_Driver/Src/stm32f0xx_hal_pcd.c ****     {
 1790              		.loc 1 795 11 is_stmt 0 view .LVU401
 1791 00c0 5A78     		ldrb	r2, [r3, #1]
 795:Drivers/STM32F0xx_HAL_Driver/Src/stm32f0xx_hal_pcd.c ****     {
 1792              		.loc 1 795 8 view .LVU402
 1793 00c2 002A     		cmp	r2, #0
 1794 00c4 3AD1     		bne	.L85
 798:Drivers/STM32F0xx_HAL_Driver/Src/stm32f0xx_hal_pcd.c ****       PCD_CLEAR_TX_DTOG(hpcd->Instance, ep->num)
 1795              		.loc 1 798 7 is_stmt 1 view .LVU403
 1796 00c6 1A78     		ldrb	r2, [r3]
 1797 00c8 9200     		lsls	r2, r2, #2
 1798 00ca 0168     		ldr	r1, [r0]
 1799 00cc 8C46     		mov	ip, r1
 1800 00ce 6244     		add	r2, r2, ip
 1801 00d0 1188     		ldrh	r1, [r2]
 1802 00d2 4C04     		lsls	r4, r1, #17
 1803 00d4 04D5     		bpl	.L86
 798:Drivers/STM32F0xx_HAL_Driver/Src/stm32f0xx_hal_pcd.c ****       PCD_CLEAR_TX_DTOG(hpcd->Instance, ep->num)
 1804              		.loc 1 798 7 discriminator 1 view .LVU404
 1805 00d6 384C     		ldr	r4, .L92
 1806 00d8 2140     		ands	r1, r4
 1807 00da 3B4C     		ldr	r4, .L92+16
ARM GAS  /tmp/cclz3j42.s 			page 50


 1808 00dc 2143     		orrs	r1, r4
 1809 00de 1180     		strh	r1, [r2]
 1810              	.L86:
 799:Drivers/STM32F0xx_HAL_Driver/Src/stm32f0xx_hal_pcd.c ****       
 1811              		.loc 1 799 7 view .LVU405
 1812 00e0 1A78     		ldrb	r2, [r3]
 1813 00e2 9200     		lsls	r2, r2, #2
 1814 00e4 0168     		ldr	r1, [r0]
 1815 00e6 8C46     		mov	ip, r1
 1816 00e8 6244     		add	r2, r2, ip
 1817 00ea 1188     		ldrh	r1, [r2]
 1818 00ec 4C06     		lsls	r4, r1, #25
 1819 00ee 04D5     		bpl	.L87
 799:Drivers/STM32F0xx_HAL_Driver/Src/stm32f0xx_hal_pcd.c ****       
 1820              		.loc 1 799 7 discriminator 1 view .LVU406
 1821 00f0 314C     		ldr	r4, .L92
 1822 00f2 2140     		ands	r1, r4
 1823 00f4 314C     		ldr	r4, .L92+4
 1824 00f6 2143     		orrs	r1, r4
 1825 00f8 1180     		strh	r1, [r2]
 1826              	.L87:
 802:Drivers/STM32F0xx_HAL_Driver/Src/stm32f0xx_hal_pcd.c ****       
 1827              		.loc 1 802 7 view .LVU407
 1828 00fa 1A78     		ldrb	r2, [r3]
 1829 00fc 9200     		lsls	r2, r2, #2
 1830 00fe 0168     		ldr	r1, [r0]
 1831 0100 8C46     		mov	ip, r1
 1832 0102 6244     		add	r2, r2, ip
 1833 0104 1188     		ldrh	r1, [r2]
 1834 0106 2C4C     		ldr	r4, .L92
 1835 0108 0C40     		ands	r4, r1
 1836 010a 2C49     		ldr	r1, .L92+4
 1837 010c 2143     		orrs	r1, r4
 1838 010e 1180     		strh	r1, [r2]
 1839              	.LBB14:
 804:Drivers/STM32F0xx_HAL_Driver/Src/stm32f0xx_hal_pcd.c ****       PCD_SET_EP_TX_STATUS(hpcd->Instance, ep->num, USB_EP_TX_DIS)
 1840              		.loc 1 804 7 view .LVU408
 804:Drivers/STM32F0xx_HAL_Driver/Src/stm32f0xx_hal_pcd.c ****       PCD_SET_EP_TX_STATUS(hpcd->Instance, ep->num, USB_EP_TX_DIS)
 1841              		.loc 1 804 7 view .LVU409
 1842 0110 1C78     		ldrb	r4, [r3]
 1843 0112 A400     		lsls	r4, r4, #2
 1844 0114 0268     		ldr	r2, [r0]
 1845 0116 9446     		mov	ip, r2
 1846 0118 6444     		add	r4, r4, ip
 1847 011a 2288     		ldrh	r2, [r4]
 1848 011c 2B49     		ldr	r1, .L92+20
 1849 011e 0A40     		ands	r2, r1
 1850              	.LVL117:
 804:Drivers/STM32F0xx_HAL_Driver/Src/stm32f0xx_hal_pcd.c ****       PCD_SET_EP_TX_STATUS(hpcd->Instance, ep->num, USB_EP_TX_DIS)
 1851              		.loc 1 804 7 view .LVU410
 804:Drivers/STM32F0xx_HAL_Driver/Src/stm32f0xx_hal_pcd.c ****       PCD_SET_EP_TX_STATUS(hpcd->Instance, ep->num, USB_EP_TX_DIS)
 1852              		.loc 1 804 7 view .LVU411
 804:Drivers/STM32F0xx_HAL_Driver/Src/stm32f0xx_hal_pcd.c ****       PCD_SET_EP_TX_STATUS(hpcd->Instance, ep->num, USB_EP_TX_DIS)
 1853              		.loc 1 804 7 view .LVU412
 1854 0120 2849     		ldr	r1, .L92+12
 1855 0122 0A43     		orrs	r2, r1
 1856              	.LVL118:
ARM GAS  /tmp/cclz3j42.s 			page 51


 804:Drivers/STM32F0xx_HAL_Driver/Src/stm32f0xx_hal_pcd.c ****       PCD_SET_EP_TX_STATUS(hpcd->Instance, ep->num, USB_EP_TX_DIS)
 1857              		.loc 1 804 7 is_stmt 0 view .LVU413
 1858 0124 2280     		strh	r2, [r4]
 1859              	.LVL119:
 804:Drivers/STM32F0xx_HAL_Driver/Src/stm32f0xx_hal_pcd.c ****       PCD_SET_EP_TX_STATUS(hpcd->Instance, ep->num, USB_EP_TX_DIS)
 1860              		.loc 1 804 7 view .LVU414
 1861              	.LBE14:
 1862              	.LBB15:
 805:Drivers/STM32F0xx_HAL_Driver/Src/stm32f0xx_hal_pcd.c ****     }
 1863              		.loc 1 805 7 is_stmt 1 view .LVU415
 805:Drivers/STM32F0xx_HAL_Driver/Src/stm32f0xx_hal_pcd.c ****     }
 1864              		.loc 1 805 7 view .LVU416
 1865 0126 1B78     		ldrb	r3, [r3]
 1866              	.LVL120:
 805:Drivers/STM32F0xx_HAL_Driver/Src/stm32f0xx_hal_pcd.c ****     }
 1867              		.loc 1 805 7 is_stmt 0 view .LVU417
 1868 0128 9B00     		lsls	r3, r3, #2
 1869 012a 0268     		ldr	r2, [r0]
 1870 012c 9446     		mov	ip, r2
 1871 012e 6344     		add	r3, r3, ip
 1872 0130 1A88     		ldrh	r2, [r3]
 1873 0132 234C     		ldr	r4, .L92+8
 1874 0134 2240     		ands	r2, r4
 1875              	.LVL121:
 805:Drivers/STM32F0xx_HAL_Driver/Src/stm32f0xx_hal_pcd.c ****     }
 1876              		.loc 1 805 7 is_stmt 1 view .LVU418
 805:Drivers/STM32F0xx_HAL_Driver/Src/stm32f0xx_hal_pcd.c ****     }
 1877              		.loc 1 805 7 view .LVU419
 805:Drivers/STM32F0xx_HAL_Driver/Src/stm32f0xx_hal_pcd.c ****     }
 1878              		.loc 1 805 7 view .LVU420
 1879 0136 1143     		orrs	r1, r2
 1880 0138 1980     		strh	r1, [r3]
 1881              	.LBE15:
 1882 013a 9AE7     		b	.L83
 1883              	.LVL122:
 1884              	.L85:
 810:Drivers/STM32F0xx_HAL_Driver/Src/stm32f0xx_hal_pcd.c ****       PCD_CLEAR_TX_DTOG(hpcd->Instance, ep->num)
 1885              		.loc 1 810 7 view .LVU421
 1886 013c 1A78     		ldrb	r2, [r3]
 1887 013e 9200     		lsls	r2, r2, #2
 1888 0140 0168     		ldr	r1, [r0]
 1889 0142 8C46     		mov	ip, r1
 1890 0144 6244     		add	r2, r2, ip
 1891 0146 1188     		ldrh	r1, [r2]
 1892 0148 4C04     		lsls	r4, r1, #17
 1893 014a 04D5     		bpl	.L88
 810:Drivers/STM32F0xx_HAL_Driver/Src/stm32f0xx_hal_pcd.c ****       PCD_CLEAR_TX_DTOG(hpcd->Instance, ep->num)
 1894              		.loc 1 810 7 discriminator 1 view .LVU422
 1895 014c 1A4C     		ldr	r4, .L92
 1896 014e 2140     		ands	r1, r4
 1897 0150 1D4C     		ldr	r4, .L92+16
 1898 0152 2143     		orrs	r1, r4
 1899 0154 1180     		strh	r1, [r2]
 1900              	.L88:
 811:Drivers/STM32F0xx_HAL_Driver/Src/stm32f0xx_hal_pcd.c ****       PCD_RX_DTOG(hpcd->Instance, ep->num);
 1901              		.loc 1 811 7 view .LVU423
 1902 0156 1A78     		ldrb	r2, [r3]
ARM GAS  /tmp/cclz3j42.s 			page 52


 1903 0158 9200     		lsls	r2, r2, #2
 1904 015a 0168     		ldr	r1, [r0]
 1905 015c 8C46     		mov	ip, r1
 1906 015e 6244     		add	r2, r2, ip
 1907 0160 1188     		ldrh	r1, [r2]
 1908 0162 4C06     		lsls	r4, r1, #25
 1909 0164 04D5     		bpl	.L89
 811:Drivers/STM32F0xx_HAL_Driver/Src/stm32f0xx_hal_pcd.c ****       PCD_RX_DTOG(hpcd->Instance, ep->num);
 1910              		.loc 1 811 7 discriminator 1 view .LVU424
 1911 0166 144C     		ldr	r4, .L92
 1912 0168 2140     		ands	r1, r4
 1913 016a 144C     		ldr	r4, .L92+4
 1914 016c 2143     		orrs	r1, r4
 1915 016e 1180     		strh	r1, [r2]
 1916              	.L89:
 812:Drivers/STM32F0xx_HAL_Driver/Src/stm32f0xx_hal_pcd.c ****       /* Configure DISABLE status for the Endpoint*/
 1917              		.loc 1 812 7 view .LVU425
 1918 0170 1A78     		ldrb	r2, [r3]
 1919 0172 9200     		lsls	r2, r2, #2
 1920 0174 0168     		ldr	r1, [r0]
 1921 0176 8C46     		mov	ip, r1
 1922 0178 6244     		add	r2, r2, ip
 1923 017a 1188     		ldrh	r1, [r2]
 1924 017c 0E4C     		ldr	r4, .L92
 1925 017e 0C40     		ands	r4, r1
 1926 0180 1149     		ldr	r1, .L92+16
 1927 0182 2143     		orrs	r1, r4
 1928 0184 1180     		strh	r1, [r2]
 1929              	.LBB16:
 814:Drivers/STM32F0xx_HAL_Driver/Src/stm32f0xx_hal_pcd.c ****       PCD_SET_EP_RX_STATUS(hpcd->Instance, ep->num, USB_EP_RX_DIS)
 1930              		.loc 1 814 7 view .LVU426
 814:Drivers/STM32F0xx_HAL_Driver/Src/stm32f0xx_hal_pcd.c ****       PCD_SET_EP_RX_STATUS(hpcd->Instance, ep->num, USB_EP_RX_DIS)
 1931              		.loc 1 814 7 view .LVU427
 1932 0186 1C78     		ldrb	r4, [r3]
 1933 0188 A400     		lsls	r4, r4, #2
 1934 018a 0268     		ldr	r2, [r0]
 1935 018c 9446     		mov	ip, r2
 1936 018e 6444     		add	r4, r4, ip
 1937 0190 2288     		ldrh	r2, [r4]
 1938 0192 0B49     		ldr	r1, .L92+8
 1939 0194 0A40     		ands	r2, r1
 1940              	.LVL123:
 814:Drivers/STM32F0xx_HAL_Driver/Src/stm32f0xx_hal_pcd.c ****       PCD_SET_EP_RX_STATUS(hpcd->Instance, ep->num, USB_EP_RX_DIS)
 1941              		.loc 1 814 7 view .LVU428
 814:Drivers/STM32F0xx_HAL_Driver/Src/stm32f0xx_hal_pcd.c ****       PCD_SET_EP_RX_STATUS(hpcd->Instance, ep->num, USB_EP_RX_DIS)
 1942              		.loc 1 814 7 view .LVU429
 814:Drivers/STM32F0xx_HAL_Driver/Src/stm32f0xx_hal_pcd.c ****       PCD_SET_EP_RX_STATUS(hpcd->Instance, ep->num, USB_EP_RX_DIS)
 1943              		.loc 1 814 7 view .LVU430
 1944 0196 0B49     		ldr	r1, .L92+12
 1945 0198 0A43     		orrs	r2, r1
 1946              	.LVL124:
 814:Drivers/STM32F0xx_HAL_Driver/Src/stm32f0xx_hal_pcd.c ****       PCD_SET_EP_RX_STATUS(hpcd->Instance, ep->num, USB_EP_RX_DIS)
 1947              		.loc 1 814 7 is_stmt 0 view .LVU431
 1948 019a 2280     		strh	r2, [r4]
 1949              	.LVL125:
 814:Drivers/STM32F0xx_HAL_Driver/Src/stm32f0xx_hal_pcd.c ****       PCD_SET_EP_RX_STATUS(hpcd->Instance, ep->num, USB_EP_RX_DIS)
 1950              		.loc 1 814 7 view .LVU432
ARM GAS  /tmp/cclz3j42.s 			page 53


 1951              	.LBE16:
 1952              	.LBB17:
 815:Drivers/STM32F0xx_HAL_Driver/Src/stm32f0xx_hal_pcd.c ****     }
 1953              		.loc 1 815 7 is_stmt 1 view .LVU433
 815:Drivers/STM32F0xx_HAL_Driver/Src/stm32f0xx_hal_pcd.c ****     }
 1954              		.loc 1 815 7 view .LVU434
 1955 019c 1B78     		ldrb	r3, [r3]
 1956              	.LVL126:
 815:Drivers/STM32F0xx_HAL_Driver/Src/stm32f0xx_hal_pcd.c ****     }
 1957              		.loc 1 815 7 is_stmt 0 view .LVU435
 1958 019e 9B00     		lsls	r3, r3, #2
 1959 01a0 0268     		ldr	r2, [r0]
 1960 01a2 9446     		mov	ip, r2
 1961 01a4 6344     		add	r3, r3, ip
 1962 01a6 1A88     		ldrh	r2, [r3]
 1963 01a8 084C     		ldr	r4, .L92+20
 1964 01aa 2240     		ands	r2, r4
 1965              	.LVL127:
 815:Drivers/STM32F0xx_HAL_Driver/Src/stm32f0xx_hal_pcd.c ****     }
 1966              		.loc 1 815 7 is_stmt 1 view .LVU436
 815:Drivers/STM32F0xx_HAL_Driver/Src/stm32f0xx_hal_pcd.c ****     }
 1967              		.loc 1 815 7 view .LVU437
 815:Drivers/STM32F0xx_HAL_Driver/Src/stm32f0xx_hal_pcd.c ****     }
 1968              		.loc 1 815 7 view .LVU438
 1969 01ac 1143     		orrs	r1, r2
 1970 01ae 1980     		strh	r1, [r3]
 1971 01b0 5FE7     		b	.L83
 1972              	.LVL128:
 1973              	.L90:
 815:Drivers/STM32F0xx_HAL_Driver/Src/stm32f0xx_hal_pcd.c ****     }
 1974              		.loc 1 815 7 is_stmt 0 view .LVU439
 1975              	.LBE17:
 775:Drivers/STM32F0xx_HAL_Driver/Src/stm32f0xx_hal_pcd.c **** 
 1976              		.loc 1 775 3 view .LVU440
 1977 01b2 0220     		movs	r0, #2
 1978              	.LVL129:
 775:Drivers/STM32F0xx_HAL_Driver/Src/stm32f0xx_hal_pcd.c **** 
 1979              		.loc 1 775 3 view .LVU441
 1980 01b4 62E7     		b	.L79
 1981              	.L93:
 1982 01b6 C046     		.align	2
 1983              	.L92:
 1984 01b8 0F0F0000 		.word	3855
 1985 01bc C080FFFF 		.word	-32576
 1986 01c0 BF8FFFFF 		.word	-28737
 1987 01c4 8080FFFF 		.word	-32640
 1988 01c8 80C0FFFF 		.word	-16256
 1989 01cc 8FBFFFFF 		.word	-16497
 1990              		.cfi_endproc
 1991              	.LFE59:
 1993              		.section	.text.HAL_PCD_EP_Receive,"ax",%progbits
 1994              		.align	1
 1995              		.global	HAL_PCD_EP_Receive
 1996              		.syntax unified
 1997              		.code	16
 1998              		.thumb_func
 1999              		.fpu softvfp
ARM GAS  /tmp/cclz3j42.s 			page 54


 2001              	HAL_PCD_EP_Receive:
 2002              	.LVL130:
 2003              	.LFB60:
 822:Drivers/STM32F0xx_HAL_Driver/Src/stm32f0xx_hal_pcd.c **** 
 823:Drivers/STM32F0xx_HAL_Driver/Src/stm32f0xx_hal_pcd.c **** 
 824:Drivers/STM32F0xx_HAL_Driver/Src/stm32f0xx_hal_pcd.c **** /**
 825:Drivers/STM32F0xx_HAL_Driver/Src/stm32f0xx_hal_pcd.c ****   * @brief  Receive an amount of data  
 826:Drivers/STM32F0xx_HAL_Driver/Src/stm32f0xx_hal_pcd.c ****   * @param  hpcd PCD handle
 827:Drivers/STM32F0xx_HAL_Driver/Src/stm32f0xx_hal_pcd.c ****   * @param  ep_addr endpoint address
 828:Drivers/STM32F0xx_HAL_Driver/Src/stm32f0xx_hal_pcd.c ****   * @param  pBuf pointer to the reception buffer   
 829:Drivers/STM32F0xx_HAL_Driver/Src/stm32f0xx_hal_pcd.c ****   * @param  len amount of data to be received
 830:Drivers/STM32F0xx_HAL_Driver/Src/stm32f0xx_hal_pcd.c ****   * @retval HAL status
 831:Drivers/STM32F0xx_HAL_Driver/Src/stm32f0xx_hal_pcd.c ****   */
 832:Drivers/STM32F0xx_HAL_Driver/Src/stm32f0xx_hal_pcd.c **** HAL_StatusTypeDef HAL_PCD_EP_Receive(PCD_HandleTypeDef *hpcd, uint8_t ep_addr, uint8_t *pBuf, uint3
 833:Drivers/STM32F0xx_HAL_Driver/Src/stm32f0xx_hal_pcd.c **** {
 2004              		.loc 1 833 1 is_stmt 1 view -0
 2005              		.cfi_startproc
 2006              		@ args = 0, pretend = 0, frame = 0
 2007              		@ frame_needed = 0, uses_anonymous_args = 0
 2008              		.loc 1 833 1 is_stmt 0 view .LVU443
 2009 0000 70B5     		push	{r4, r5, r6, lr}
 2010              	.LCFI7:
 2011              		.cfi_def_cfa_offset 16
 2012              		.cfi_offset 4, -16
 2013              		.cfi_offset 5, -12
 2014              		.cfi_offset 6, -8
 2015              		.cfi_offset 14, -4
 834:Drivers/STM32F0xx_HAL_Driver/Src/stm32f0xx_hal_pcd.c ****   
 835:Drivers/STM32F0xx_HAL_Driver/Src/stm32f0xx_hal_pcd.c ****  PCD_EPTypeDef *ep;
 2016              		.loc 1 835 2 is_stmt 1 view .LVU444
 836:Drivers/STM32F0xx_HAL_Driver/Src/stm32f0xx_hal_pcd.c ****   
 837:Drivers/STM32F0xx_HAL_Driver/Src/stm32f0xx_hal_pcd.c ****   ep = &hpcd->OUT_ep[ep_addr & 0x7FU];
 2017              		.loc 1 837 3 view .LVU445
 2018 0002 7F24     		movs	r4, #127
 2019 0004 2140     		ands	r1, r4
 2020              	.LVL131:
 838:Drivers/STM32F0xx_HAL_Driver/Src/stm32f0xx_hal_pcd.c ****   
 839:Drivers/STM32F0xx_HAL_Driver/Src/stm32f0xx_hal_pcd.c ****   /*setup and start the Xfer */
 840:Drivers/STM32F0xx_HAL_Driver/Src/stm32f0xx_hal_pcd.c ****   ep->xfer_buff = pBuf;  
 2021              		.loc 1 840 3 view .LVU446
 2022              		.loc 1 840 17 is_stmt 0 view .LVU447
 2023 0006 CD00     		lsls	r5, r1, #3
 2024 0008 6D1A     		subs	r5, r5, r1
 2025 000a AC00     		lsls	r4, r5, #2
 2026 000c 0419     		adds	r4, r0, r4
 2027 000e 2500     		movs	r5, r4
 2028 0010 1935     		adds	r5, r5, #25
 2029 0012 FF35     		adds	r5, r5, #255
 2030 0014 2A60     		str	r2, [r5]
 841:Drivers/STM32F0xx_HAL_Driver/Src/stm32f0xx_hal_pcd.c ****   ep->xfer_len = len;
 2031              		.loc 1 841 3 is_stmt 1 view .LVU448
 2032              		.loc 1 841 16 is_stmt 0 view .LVU449
 2033 0016 2200     		movs	r2, r4
 2034              	.LVL132:
 2035              		.loc 1 841 16 view .LVU450
 2036 0018 1D32     		adds	r2, r2, #29
 2037 001a FF32     		adds	r2, r2, #255
ARM GAS  /tmp/cclz3j42.s 			page 55


 2038 001c 1360     		str	r3, [r2]
 842:Drivers/STM32F0xx_HAL_Driver/Src/stm32f0xx_hal_pcd.c ****   ep->xfer_count = 0U;
 2039              		.loc 1 842 3 is_stmt 1 view .LVU451
 2040              		.loc 1 842 18 is_stmt 0 view .LVU452
 2041 001e 0835     		adds	r5, r5, #8
 2042              	.LVL133:
 2043              		.loc 1 842 18 view .LVU453
 2044 0020 0022     		movs	r2, #0
 2045 0022 2A60     		str	r2, [r5]
 843:Drivers/STM32F0xx_HAL_Driver/Src/stm32f0xx_hal_pcd.c ****   ep->is_in = 0U;
 2046              		.loc 1 843 3 is_stmt 1 view .LVU454
 2047              		.loc 1 843 13 is_stmt 0 view .LVU455
 2048 0024 173D     		subs	r5, r5, #23
 2049              	.LVL134:
 2050              		.loc 1 843 13 view .LVU456
 2051 0026 2A70     		strb	r2, [r5]
 844:Drivers/STM32F0xx_HAL_Driver/Src/stm32f0xx_hal_pcd.c ****   ep->num = ep_addr & 0x7FU;
 2052              		.loc 1 844 3 is_stmt 1 view .LVU457
 2053              		.loc 1 844 11 is_stmt 0 view .LVU458
 2054 0028 2200     		movs	r2, r4
 2055 002a 0932     		adds	r2, r2, #9
 2056 002c FF32     		adds	r2, r2, #255
 2057 002e 1170     		strb	r1, [r2]
 845:Drivers/STM32F0xx_HAL_Driver/Src/stm32f0xx_hal_pcd.c ****    
 846:Drivers/STM32F0xx_HAL_Driver/Src/stm32f0xx_hal_pcd.c ****   /* Multi packet transfer*/
 847:Drivers/STM32F0xx_HAL_Driver/Src/stm32f0xx_hal_pcd.c ****   if (ep->xfer_len > ep->maxpacket)
 2058              		.loc 1 847 3 is_stmt 1 view .LVU459
 2059              		.loc 1 847 24 is_stmt 0 view .LVU460
 2060 0030 1534     		adds	r4, r4, #21
 2061 0032 FF34     		adds	r4, r4, #255
 2062 0034 2268     		ldr	r2, [r4]
 2063              		.loc 1 847 6 view .LVU461
 2064 0036 9342     		cmp	r3, r2
 2065 0038 40D9     		bls	.L95
 848:Drivers/STM32F0xx_HAL_Driver/Src/stm32f0xx_hal_pcd.c ****   {
 849:Drivers/STM32F0xx_HAL_Driver/Src/stm32f0xx_hal_pcd.c ****     len=ep->maxpacket;
 2066              		.loc 1 849 5 is_stmt 1 view .LVU462
 2067              	.LVL135:
 850:Drivers/STM32F0xx_HAL_Driver/Src/stm32f0xx_hal_pcd.c ****     ep->xfer_len-=len; 
 2068              		.loc 1 850 5 view .LVU463
 2069              		.loc 1 850 17 is_stmt 0 view .LVU464
 2070 003a CD00     		lsls	r5, r1, #3
 2071              	.LVL136:
 2072              		.loc 1 850 17 view .LVU465
 2073 003c 6D1A     		subs	r5, r5, r1
 2074 003e AC00     		lsls	r4, r5, #2
 2075              	.LVL137:
 2076              		.loc 1 850 17 view .LVU466
 2077 0040 0419     		adds	r4, r0, r4
 2078              	.LVL138:
 2079              		.loc 1 850 17 view .LVU467
 2080 0042 1D34     		adds	r4, r4, #29
 2081              	.LVL139:
 2082              		.loc 1 850 17 view .LVU468
 2083 0044 FF34     		adds	r4, r4, #255
 2084              	.LVL140:
 2085              		.loc 1 850 17 view .LVU469
ARM GAS  /tmp/cclz3j42.s 			page 56


 2086 0046 9B1A     		subs	r3, r3, r2
 2087 0048 2360     		str	r3, [r4]
 2088              	.LVL141:
 2089              	.L96:
 851:Drivers/STM32F0xx_HAL_Driver/Src/stm32f0xx_hal_pcd.c ****   }
 852:Drivers/STM32F0xx_HAL_Driver/Src/stm32f0xx_hal_pcd.c ****   else
 853:Drivers/STM32F0xx_HAL_Driver/Src/stm32f0xx_hal_pcd.c ****   {
 854:Drivers/STM32F0xx_HAL_Driver/Src/stm32f0xx_hal_pcd.c ****     len=ep->xfer_len;
 855:Drivers/STM32F0xx_HAL_Driver/Src/stm32f0xx_hal_pcd.c ****     ep->xfer_len =0U;
 856:Drivers/STM32F0xx_HAL_Driver/Src/stm32f0xx_hal_pcd.c ****   }
 857:Drivers/STM32F0xx_HAL_Driver/Src/stm32f0xx_hal_pcd.c ****   
 858:Drivers/STM32F0xx_HAL_Driver/Src/stm32f0xx_hal_pcd.c ****   /* configure and validate Rx endpoint */
 859:Drivers/STM32F0xx_HAL_Driver/Src/stm32f0xx_hal_pcd.c ****   if (ep->doublebuffer == 0) 
 2090              		.loc 1 859 3 is_stmt 1 view .LVU470
 2091              		.loc 1 859 9 is_stmt 0 view .LVU471
 2092 004a CC00     		lsls	r4, r1, #3
 2093 004c 641A     		subs	r4, r4, r1
 2094 004e A300     		lsls	r3, r4, #2
 2095 0050 1C00     		movs	r4, r3
 2096 0052 C318     		adds	r3, r0, r3
 2097 0054 1333     		adds	r3, r3, #19
 2098 0056 FF33     		adds	r3, r3, #255
 2099 0058 1B78     		ldrb	r3, [r3]
 2100              		.loc 1 859 6 view .LVU472
 2101 005a 002B     		cmp	r3, #0
 2102 005c 41D1     		bne	.L97
 2103              	.LBB18:
 860:Drivers/STM32F0xx_HAL_Driver/Src/stm32f0xx_hal_pcd.c ****   {
 861:Drivers/STM32F0xx_HAL_Driver/Src/stm32f0xx_hal_pcd.c ****     /*Set RX buffer count*/
 862:Drivers/STM32F0xx_HAL_Driver/Src/stm32f0xx_hal_pcd.c ****     PCD_SET_EP_RX_CNT(hpcd->Instance, ep->num, len)
 2104              		.loc 1 862 5 is_stmt 1 view .LVU473
 2105 005e 0568     		ldr	r5, [r0]
 2106 0060 5033     		adds	r3, r3, #80
 2107 0062 EB5A     		ldrh	r3, [r5, r3]
 2108 0064 0419     		adds	r4, r0, r4
 2109 0066 0934     		adds	r4, r4, #9
 2110 0068 FF34     		adds	r4, r4, #255
 2111 006a 2478     		ldrb	r4, [r4]
 2112 006c E400     		lsls	r4, r4, #3
 2113 006e 1B19     		adds	r3, r3, r4
 2114 0070 5B19     		adds	r3, r3, r5
 2115 0072 5E4C     		ldr	r4, .L112
 2116 0074 A446     		mov	ip, r4
 2117 0076 6344     		add	r3, r3, ip
 2118              	.LVL142:
 2119              	.LBB19:
 2120              		.loc 1 862 5 view .LVU474
 2121              		.loc 1 862 5 view .LVU475
 2122 0078 3E2A     		cmp	r2, #62
 2123 007a 29D9     		bls	.L98
 2124              		.loc 1 862 5 discriminator 1 view .LVU476
 2125 007c 5409     		lsrs	r4, r2, #5
 2126 007e A4B2     		uxth	r4, r4
 2127              	.LVL143:
 2128              		.loc 1 862 5 discriminator 1 view .LVU477
 2129 0080 D206     		lsls	r2, r2, #27
 2130 0082 01D1     		bne	.L99
ARM GAS  /tmp/cclz3j42.s 			page 57


 2131              	.LVL144:
 2132              		.loc 1 862 5 discriminator 3 view .LVU478
 2133 0084 013C     		subs	r4, r4, #1
 2134              	.LVL145:
 2135              		.loc 1 862 5 is_stmt 0 discriminator 3 view .LVU479
 2136 0086 A4B2     		uxth	r4, r4
 2137              	.LVL146:
 2138              	.L99:
 2139              		.loc 1 862 5 is_stmt 1 discriminator 5 view .LVU480
 2140 0088 A402     		lsls	r4, r4, #10
 2141              	.LVL147:
 2142              		.loc 1 862 5 is_stmt 0 discriminator 5 view .LVU481
 2143 008a A4B2     		uxth	r4, r4
 2144 008c 584A     		ldr	r2, .L112+4
 2145 008e 1443     		orrs	r4, r2
 2146 0090 1C80     		strh	r4, [r3]
 2147              	.LVL148:
 2148              	.L100:
 2149              		.loc 1 862 5 discriminator 5 view .LVU482
 2150              	.LBE19:
 2151              	.LBE18:
 2152              	.LBB21:
 863:Drivers/STM32F0xx_HAL_Driver/Src/stm32f0xx_hal_pcd.c ****   }
 864:Drivers/STM32F0xx_HAL_Driver/Src/stm32f0xx_hal_pcd.c ****   else
 865:Drivers/STM32F0xx_HAL_Driver/Src/stm32f0xx_hal_pcd.c ****   {
 866:Drivers/STM32F0xx_HAL_Driver/Src/stm32f0xx_hal_pcd.c ****     /*Set the Double buffer counter*/
 867:Drivers/STM32F0xx_HAL_Driver/Src/stm32f0xx_hal_pcd.c ****     PCD_SET_EP_DBUF_CNT(hpcd->Instance, ep->num, ep->is_in, len)
 868:Drivers/STM32F0xx_HAL_Driver/Src/stm32f0xx_hal_pcd.c ****   } 
 869:Drivers/STM32F0xx_HAL_Driver/Src/stm32f0xx_hal_pcd.c ****   
 870:Drivers/STM32F0xx_HAL_Driver/Src/stm32f0xx_hal_pcd.c ****   PCD_SET_EP_RX_STATUS(hpcd->Instance, ep->num, USB_EP_RX_VALID)
 2153              		.loc 1 870 3 is_stmt 1 view .LVU483
 2154              		.loc 1 870 3 view .LVU484
 2155 0092 0368     		ldr	r3, [r0]
 2156 0094 CA00     		lsls	r2, r1, #3
 2157 0096 511A     		subs	r1, r2, r1
 2158              	.LVL149:
 2159              		.loc 1 870 3 is_stmt 0 view .LVU485
 2160 0098 8A00     		lsls	r2, r1, #2
 2161 009a 8018     		adds	r0, r0, r2
 2162              	.LVL150:
 2163              		.loc 1 870 3 view .LVU486
 2164 009c 0930     		adds	r0, r0, #9
 2165 009e FF30     		adds	r0, r0, #255
 2166 00a0 0278     		ldrb	r2, [r0]
 2167 00a2 9200     		lsls	r2, r2, #2
 2168 00a4 9B18     		adds	r3, r3, r2
 2169 00a6 1988     		ldrh	r1, [r3]
 2170 00a8 524A     		ldr	r2, .L112+8
 2171 00aa 1140     		ands	r1, r2
 2172              	.LVL151:
 2173              		.loc 1 870 3 is_stmt 1 view .LVU487
 2174              		.loc 1 870 3 view .LVU488
 2175              		.loc 1 870 3 view .LVU489
 2176              		.loc 1 870 3 view .LVU490
 2177 00ac C022     		movs	r2, #192
 2178 00ae 9201     		lsls	r2, r2, #6
 2179 00b0 5140     		eors	r1, r2
ARM GAS  /tmp/cclz3j42.s 			page 58


 2180              	.LVL152:
 2181              		.loc 1 870 3 view .LVU491
 2182 00b2 514A     		ldr	r2, .L112+12
 2183 00b4 0A43     		orrs	r2, r1
 2184 00b6 1A80     		strh	r2, [r3]
 2185              	.LBE21:
 871:Drivers/STM32F0xx_HAL_Driver/Src/stm32f0xx_hal_pcd.c ****   
 872:Drivers/STM32F0xx_HAL_Driver/Src/stm32f0xx_hal_pcd.c ****   return HAL_OK;
 2186              		.loc 1 872 3 view .LVU492
 873:Drivers/STM32F0xx_HAL_Driver/Src/stm32f0xx_hal_pcd.c **** }
 2187              		.loc 1 873 1 is_stmt 0 view .LVU493
 2188 00b8 0020     		movs	r0, #0
 2189              		@ sp needed
 2190 00ba 70BD     		pop	{r4, r5, r6, pc}
 2191              	.LVL153:
 2192              	.L95:
 854:Drivers/STM32F0xx_HAL_Driver/Src/stm32f0xx_hal_pcd.c ****     ep->xfer_len =0U;
 2193              		.loc 1 854 5 is_stmt 1 view .LVU494
 855:Drivers/STM32F0xx_HAL_Driver/Src/stm32f0xx_hal_pcd.c ****   }
 2194              		.loc 1 855 5 view .LVU495
 855:Drivers/STM32F0xx_HAL_Driver/Src/stm32f0xx_hal_pcd.c ****   }
 2195              		.loc 1 855 18 is_stmt 0 view .LVU496
 2196 00bc CC00     		lsls	r4, r1, #3
 2197 00be 641A     		subs	r4, r4, r1
 2198 00c0 A200     		lsls	r2, r4, #2
 2199 00c2 8218     		adds	r2, r0, r2
 2200 00c4 1D32     		adds	r2, r2, #29
 2201 00c6 FF32     		adds	r2, r2, #255
 2202 00c8 0024     		movs	r4, #0
 2203 00ca 1460     		str	r4, [r2]
 2204              	.LVL154:
 854:Drivers/STM32F0xx_HAL_Driver/Src/stm32f0xx_hal_pcd.c ****     ep->xfer_len =0U;
 2205              		.loc 1 854 8 view .LVU497
 2206 00cc 1A00     		movs	r2, r3
 2207 00ce BCE7     		b	.L96
 2208              	.LVL155:
 2209              	.L98:
 2210              	.LBB22:
 2211              	.LBB20:
 862:Drivers/STM32F0xx_HAL_Driver/Src/stm32f0xx_hal_pcd.c ****   }
 2212              		.loc 1 862 5 is_stmt 1 discriminator 2 view .LVU498
 2213 00d0 5408     		lsrs	r4, r2, #1
 2214 00d2 A4B2     		uxth	r4, r4
 2215              	.LVL156:
 862:Drivers/STM32F0xx_HAL_Driver/Src/stm32f0xx_hal_pcd.c ****   }
 2216              		.loc 1 862 5 discriminator 2 view .LVU499
 2217 00d4 D207     		lsls	r2, r2, #31
 2218 00d6 01D5     		bpl	.L101
 2219              	.LVL157:
 862:Drivers/STM32F0xx_HAL_Driver/Src/stm32f0xx_hal_pcd.c ****   }
 2220              		.loc 1 862 5 discriminator 6 view .LVU500
 2221 00d8 0134     		adds	r4, r4, #1
 2222              	.LVL158:
 862:Drivers/STM32F0xx_HAL_Driver/Src/stm32f0xx_hal_pcd.c ****   }
 2223              		.loc 1 862 5 is_stmt 0 discriminator 6 view .LVU501
 2224 00da A4B2     		uxth	r4, r4
 2225              	.LVL159:
ARM GAS  /tmp/cclz3j42.s 			page 59


 2226              	.L101:
 862:Drivers/STM32F0xx_HAL_Driver/Src/stm32f0xx_hal_pcd.c ****   }
 2227              		.loc 1 862 5 is_stmt 1 discriminator 8 view .LVU502
 2228 00dc A402     		lsls	r4, r4, #10
 2229              	.LVL160:
 862:Drivers/STM32F0xx_HAL_Driver/Src/stm32f0xx_hal_pcd.c ****   }
 2230              		.loc 1 862 5 is_stmt 0 discriminator 8 view .LVU503
 2231 00de 1C80     		strh	r4, [r3]
 2232 00e0 D7E7     		b	.L100
 2233              	.LVL161:
 2234              	.L97:
 862:Drivers/STM32F0xx_HAL_Driver/Src/stm32f0xx_hal_pcd.c ****   }
 2235              		.loc 1 862 5 discriminator 8 view .LVU504
 2236              	.LBE20:
 2237              	.LBE22:
 867:Drivers/STM32F0xx_HAL_Driver/Src/stm32f0xx_hal_pcd.c ****   } 
 2238              		.loc 1 867 5 is_stmt 1 view .LVU505
 2239 00e2 CC00     		lsls	r4, r1, #3
 2240 00e4 641A     		subs	r4, r4, r1
 2241 00e6 A300     		lsls	r3, r4, #2
 2242 00e8 1C00     		movs	r4, r3
 2243 00ea C318     		adds	r3, r0, r3
 2244 00ec 0A33     		adds	r3, r3, #10
 2245 00ee FF33     		adds	r3, r3, #255
 2246 00f0 1B78     		ldrb	r3, [r3]
 2247 00f2 002B     		cmp	r3, #0
 2248 00f4 23D1     		bne	.L102
 2249              	.LBB23:
 867:Drivers/STM32F0xx_HAL_Driver/Src/stm32f0xx_hal_pcd.c ****   } 
 2250              		.loc 1 867 5 discriminator 1 view .LVU506
 2251 00f6 0568     		ldr	r5, [r0]
 2252 00f8 5033     		adds	r3, r3, #80
 2253 00fa EB5A     		ldrh	r3, [r5, r3]
 2254 00fc 0419     		adds	r4, r0, r4
 2255 00fe 0934     		adds	r4, r4, #9
 2256 0100 FF34     		adds	r4, r4, #255
 2257 0102 2478     		ldrb	r4, [r4]
 2258 0104 E400     		lsls	r4, r4, #3
 2259 0106 1B19     		adds	r3, r3, r4
 2260 0108 5B19     		adds	r3, r3, r5
 2261 010a 3C4C     		ldr	r4, .L112+16
 2262 010c A446     		mov	ip, r4
 2263 010e 6344     		add	r3, r3, ip
 2264              	.LVL162:
 2265              	.LBB24:
 867:Drivers/STM32F0xx_HAL_Driver/Src/stm32f0xx_hal_pcd.c ****   } 
 2266              		.loc 1 867 5 discriminator 1 view .LVU507
 867:Drivers/STM32F0xx_HAL_Driver/Src/stm32f0xx_hal_pcd.c ****   } 
 2267              		.loc 1 867 5 discriminator 1 view .LVU508
 2268 0110 3E2A     		cmp	r2, #62
 2269 0112 0BD9     		bls	.L103
 867:Drivers/STM32F0xx_HAL_Driver/Src/stm32f0xx_hal_pcd.c ****   } 
 2270              		.loc 1 867 5 discriminator 3 view .LVU509
 2271 0114 5409     		lsrs	r4, r2, #5
 2272 0116 A4B2     		uxth	r4, r4
 2273              	.LVL163:
 867:Drivers/STM32F0xx_HAL_Driver/Src/stm32f0xx_hal_pcd.c ****   } 
ARM GAS  /tmp/cclz3j42.s 			page 60


 2274              		.loc 1 867 5 discriminator 3 view .LVU510
 2275 0118 D506     		lsls	r5, r2, #27
 2276 011a 01D1     		bne	.L104
 867:Drivers/STM32F0xx_HAL_Driver/Src/stm32f0xx_hal_pcd.c ****   } 
 2277              		.loc 1 867 5 discriminator 5 view .LVU511
 2278 011c 013C     		subs	r4, r4, #1
 2279              	.LVL164:
 867:Drivers/STM32F0xx_HAL_Driver/Src/stm32f0xx_hal_pcd.c ****   } 
 2280              		.loc 1 867 5 is_stmt 0 discriminator 5 view .LVU512
 2281 011e A4B2     		uxth	r4, r4
 2282              	.LVL165:
 2283              	.L104:
 867:Drivers/STM32F0xx_HAL_Driver/Src/stm32f0xx_hal_pcd.c ****   } 
 2284              		.loc 1 867 5 is_stmt 1 discriminator 7 view .LVU513
 2285 0120 A402     		lsls	r4, r4, #10
 2286              	.LVL166:
 867:Drivers/STM32F0xx_HAL_Driver/Src/stm32f0xx_hal_pcd.c ****   } 
 2287              		.loc 1 867 5 is_stmt 0 discriminator 7 view .LVU514
 2288 0122 A4B2     		uxth	r4, r4
 2289 0124 324D     		ldr	r5, .L112+4
 2290 0126 2C43     		orrs	r4, r5
 2291 0128 1C80     		strh	r4, [r3]
 2292 012a 0AE0     		b	.L105
 2293              	.L103:
 867:Drivers/STM32F0xx_HAL_Driver/Src/stm32f0xx_hal_pcd.c ****   } 
 2294              		.loc 1 867 5 is_stmt 1 discriminator 4 view .LVU515
 2295 012c 5408     		lsrs	r4, r2, #1
 2296 012e A4B2     		uxth	r4, r4
 2297              	.LVL167:
 867:Drivers/STM32F0xx_HAL_Driver/Src/stm32f0xx_hal_pcd.c ****   } 
 2298              		.loc 1 867 5 discriminator 4 view .LVU516
 2299 0130 D507     		lsls	r5, r2, #31
 2300 0132 01D5     		bpl	.L106
 867:Drivers/STM32F0xx_HAL_Driver/Src/stm32f0xx_hal_pcd.c ****   } 
 2301              		.loc 1 867 5 discriminator 8 view .LVU517
 2302 0134 0134     		adds	r4, r4, #1
 2303              	.LVL168:
 867:Drivers/STM32F0xx_HAL_Driver/Src/stm32f0xx_hal_pcd.c ****   } 
 2304              		.loc 1 867 5 is_stmt 0 discriminator 8 view .LVU518
 2305 0136 A4B2     		uxth	r4, r4
 2306              	.LVL169:
 2307              	.L106:
 867:Drivers/STM32F0xx_HAL_Driver/Src/stm32f0xx_hal_pcd.c ****   } 
 2308              		.loc 1 867 5 is_stmt 1 discriminator 10 view .LVU519
 2309 0138 A402     		lsls	r4, r4, #10
 2310              	.LVL170:
 867:Drivers/STM32F0xx_HAL_Driver/Src/stm32f0xx_hal_pcd.c ****   } 
 2311              		.loc 1 867 5 is_stmt 0 discriminator 10 view .LVU520
 2312 013a 1C80     		strh	r4, [r3]
 2313 013c 01E0     		b	.L105
 2314              	.LVL171:
 2315              	.L102:
 867:Drivers/STM32F0xx_HAL_Driver/Src/stm32f0xx_hal_pcd.c ****   } 
 2316              		.loc 1 867 5 discriminator 10 view .LVU521
 2317              	.LBE24:
 2318              	.LBE23:
 867:Drivers/STM32F0xx_HAL_Driver/Src/stm32f0xx_hal_pcd.c ****   } 
ARM GAS  /tmp/cclz3j42.s 			page 61


 2319              		.loc 1 867 5 is_stmt 1 discriminator 2 view .LVU522
 2320 013e 012B     		cmp	r3, #1
 2321 0140 24D0     		beq	.L111
 2322              	.L105:
 867:Drivers/STM32F0xx_HAL_Driver/Src/stm32f0xx_hal_pcd.c ****   } 
 2323              		.loc 1 867 5 discriminator 13 view .LVU523
 2324 0142 CC00     		lsls	r4, r1, #3
 2325 0144 641A     		subs	r4, r4, r1
 2326 0146 A300     		lsls	r3, r4, #2
 2327 0148 1C00     		movs	r4, r3
 2328 014a C318     		adds	r3, r0, r3
 2329 014c 0A33     		adds	r3, r3, #10
 2330 014e FF33     		adds	r3, r3, #255
 2331 0150 1B78     		ldrb	r3, [r3]
 2332 0152 002B     		cmp	r3, #0
 2333 0154 35D1     		bne	.L107
 2334              	.LBB25:
 867:Drivers/STM32F0xx_HAL_Driver/Src/stm32f0xx_hal_pcd.c ****   } 
 2335              		.loc 1 867 5 discriminator 14 view .LVU524
 2336 0156 0568     		ldr	r5, [r0]
 2337 0158 5033     		adds	r3, r3, #80
 2338 015a EB5A     		ldrh	r3, [r5, r3]
 2339 015c 0419     		adds	r4, r0, r4
 2340 015e 0934     		adds	r4, r4, #9
 2341 0160 FF34     		adds	r4, r4, #255
 2342 0162 2478     		ldrb	r4, [r4]
 2343 0164 E400     		lsls	r4, r4, #3
 2344 0166 1B19     		adds	r3, r3, r4
 2345 0168 5B19     		adds	r3, r3, r5
 2346 016a 204C     		ldr	r4, .L112
 2347 016c A446     		mov	ip, r4
 2348 016e 6344     		add	r3, r3, ip
 2349              	.LVL172:
 2350              	.LBB26:
 867:Drivers/STM32F0xx_HAL_Driver/Src/stm32f0xx_hal_pcd.c ****   } 
 2351              		.loc 1 867 5 discriminator 14 view .LVU525
 867:Drivers/STM32F0xx_HAL_Driver/Src/stm32f0xx_hal_pcd.c ****   } 
 2352              		.loc 1 867 5 discriminator 14 view .LVU526
 2353 0170 3E2A     		cmp	r2, #62
 2354 0172 1DD9     		bls	.L108
 867:Drivers/STM32F0xx_HAL_Driver/Src/stm32f0xx_hal_pcd.c ****   } 
 2355              		.loc 1 867 5 discriminator 16 view .LVU527
 2356 0174 5409     		lsrs	r4, r2, #5
 2357 0176 A4B2     		uxth	r4, r4
 2358              	.LVL173:
 867:Drivers/STM32F0xx_HAL_Driver/Src/stm32f0xx_hal_pcd.c ****   } 
 2359              		.loc 1 867 5 discriminator 16 view .LVU528
 2360 0178 D206     		lsls	r2, r2, #27
 2361 017a 01D1     		bne	.L109
 2362              	.LVL174:
 867:Drivers/STM32F0xx_HAL_Driver/Src/stm32f0xx_hal_pcd.c ****   } 
 2363              		.loc 1 867 5 discriminator 18 view .LVU529
 2364 017c 013C     		subs	r4, r4, #1
 2365              	.LVL175:
 867:Drivers/STM32F0xx_HAL_Driver/Src/stm32f0xx_hal_pcd.c ****   } 
 2366              		.loc 1 867 5 is_stmt 0 discriminator 18 view .LVU530
 2367 017e A4B2     		uxth	r4, r4
ARM GAS  /tmp/cclz3j42.s 			page 62


 2368              	.LVL176:
 2369              	.L109:
 867:Drivers/STM32F0xx_HAL_Driver/Src/stm32f0xx_hal_pcd.c ****   } 
 2370              		.loc 1 867 5 is_stmt 1 discriminator 20 view .LVU531
 2371 0180 A402     		lsls	r4, r4, #10
 2372              	.LVL177:
 867:Drivers/STM32F0xx_HAL_Driver/Src/stm32f0xx_hal_pcd.c ****   } 
 2373              		.loc 1 867 5 is_stmt 0 discriminator 20 view .LVU532
 2374 0182 A4B2     		uxth	r4, r4
 2375 0184 1A4A     		ldr	r2, .L112+4
 2376 0186 1443     		orrs	r4, r2
 2377 0188 1C80     		strh	r4, [r3]
 2378 018a 82E7     		b	.L100
 2379              	.LVL178:
 2380              	.L111:
 867:Drivers/STM32F0xx_HAL_Driver/Src/stm32f0xx_hal_pcd.c ****   } 
 2381              		.loc 1 867 5 discriminator 20 view .LVU533
 2382              	.LBE26:
 2383              	.LBE25:
 867:Drivers/STM32F0xx_HAL_Driver/Src/stm32f0xx_hal_pcd.c ****   } 
 2384              		.loc 1 867 5 is_stmt 1 discriminator 11 view .LVU534
 2385 018c 0568     		ldr	r5, [r0]
 2386 018e 4F33     		adds	r3, r3, #79
 2387 0190 EB5A     		ldrh	r3, [r5, r3]
 2388 0192 CE00     		lsls	r6, r1, #3
 2389 0194 761A     		subs	r6, r6, r1
 2390 0196 B400     		lsls	r4, r6, #2
 2391 0198 0419     		adds	r4, r0, r4
 2392 019a 0934     		adds	r4, r4, #9
 2393 019c FF34     		adds	r4, r4, #255
 2394 019e 2478     		ldrb	r4, [r4]
 2395 01a0 E400     		lsls	r4, r4, #3
 2396 01a2 1B19     		adds	r3, r3, r4
 2397 01a4 5B19     		adds	r3, r3, r5
 2398 01a6 154C     		ldr	r4, .L112+16
 2399 01a8 A446     		mov	ip, r4
 2400 01aa 6344     		add	r3, r3, ip
 2401 01ac 1A80     		strh	r2, [r3]
 2402 01ae C8E7     		b	.L105
 2403              	.LVL179:
 2404              	.L108:
 2405              	.LBB28:
 2406              	.LBB27:
 867:Drivers/STM32F0xx_HAL_Driver/Src/stm32f0xx_hal_pcd.c ****   } 
 2407              		.loc 1 867 5 discriminator 17 view .LVU535
 2408 01b0 5408     		lsrs	r4, r2, #1
 2409 01b2 A4B2     		uxth	r4, r4
 2410              	.LVL180:
 867:Drivers/STM32F0xx_HAL_Driver/Src/stm32f0xx_hal_pcd.c ****   } 
 2411              		.loc 1 867 5 discriminator 17 view .LVU536
 2412 01b4 D207     		lsls	r2, r2, #31
 2413 01b6 01D5     		bpl	.L110
 2414              	.LVL181:
 867:Drivers/STM32F0xx_HAL_Driver/Src/stm32f0xx_hal_pcd.c ****   } 
 2415              		.loc 1 867 5 discriminator 21 view .LVU537
 2416 01b8 0134     		adds	r4, r4, #1
 2417              	.LVL182:
ARM GAS  /tmp/cclz3j42.s 			page 63


 867:Drivers/STM32F0xx_HAL_Driver/Src/stm32f0xx_hal_pcd.c ****   } 
 2418              		.loc 1 867 5 is_stmt 0 discriminator 21 view .LVU538
 2419 01ba A4B2     		uxth	r4, r4
 2420              	.LVL183:
 2421              	.L110:
 867:Drivers/STM32F0xx_HAL_Driver/Src/stm32f0xx_hal_pcd.c ****   } 
 2422              		.loc 1 867 5 is_stmt 1 discriminator 23 view .LVU539
 2423 01bc A402     		lsls	r4, r4, #10
 2424              	.LVL184:
 867:Drivers/STM32F0xx_HAL_Driver/Src/stm32f0xx_hal_pcd.c ****   } 
 2425              		.loc 1 867 5 is_stmt 0 discriminator 23 view .LVU540
 2426 01be 1C80     		strh	r4, [r3]
 2427 01c0 67E7     		b	.L100
 2428              	.LVL185:
 2429              	.L107:
 867:Drivers/STM32F0xx_HAL_Driver/Src/stm32f0xx_hal_pcd.c ****   } 
 2430              		.loc 1 867 5 discriminator 23 view .LVU541
 2431              	.LBE27:
 2432              	.LBE28:
 867:Drivers/STM32F0xx_HAL_Driver/Src/stm32f0xx_hal_pcd.c ****   } 
 2433              		.loc 1 867 5 is_stmt 1 discriminator 15 view .LVU542
 2434 01c2 012B     		cmp	r3, #1
 2435 01c4 00D0     		beq	.LCB2479
 2436 01c6 64E7     		b	.L100	@long jump
 2437              	.LCB2479:
 867:Drivers/STM32F0xx_HAL_Driver/Src/stm32f0xx_hal_pcd.c ****   } 
 2438              		.loc 1 867 5 discriminator 24 view .LVU543
 2439 01c8 0568     		ldr	r5, [r0]
 2440 01ca 4F33     		adds	r3, r3, #79
 2441 01cc EB5A     		ldrh	r3, [r5, r3]
 2442 01ce CE00     		lsls	r6, r1, #3
 2443 01d0 761A     		subs	r6, r6, r1
 2444 01d2 B400     		lsls	r4, r6, #2
 2445 01d4 0419     		adds	r4, r0, r4
 2446 01d6 0934     		adds	r4, r4, #9
 2447 01d8 FF34     		adds	r4, r4, #255
 2448 01da 2478     		ldrb	r4, [r4]
 2449 01dc E400     		lsls	r4, r4, #3
 2450 01de 1B19     		adds	r3, r3, r4
 2451 01e0 5B19     		adds	r3, r3, r5
 2452 01e2 024C     		ldr	r4, .L112
 2453 01e4 A446     		mov	ip, r4
 2454 01e6 6344     		add	r3, r3, ip
 2455 01e8 1A80     		strh	r2, [r3]
 2456 01ea 52E7     		b	.L100
 2457              	.L113:
 2458              		.align	2
 2459              	.L112:
 2460 01ec 06040000 		.word	1030
 2461 01f0 0080FFFF 		.word	-32768
 2462 01f4 8FBFFFFF 		.word	-16497
 2463 01f8 8080FFFF 		.word	-32640
 2464 01fc 02040000 		.word	1026
 2465              		.cfi_endproc
 2466              	.LFE60:
 2468              		.section	.text.HAL_PCD_EP_GetRxCount,"ax",%progbits
 2469              		.align	1
ARM GAS  /tmp/cclz3j42.s 			page 64


 2470              		.global	HAL_PCD_EP_GetRxCount
 2471              		.syntax unified
 2472              		.code	16
 2473              		.thumb_func
 2474              		.fpu softvfp
 2476              	HAL_PCD_EP_GetRxCount:
 2477              	.LVL186:
 2478              	.LFB61:
 874:Drivers/STM32F0xx_HAL_Driver/Src/stm32f0xx_hal_pcd.c **** 
 875:Drivers/STM32F0xx_HAL_Driver/Src/stm32f0xx_hal_pcd.c **** /**
 876:Drivers/STM32F0xx_HAL_Driver/Src/stm32f0xx_hal_pcd.c ****   * @brief  Get Received Data Size
 877:Drivers/STM32F0xx_HAL_Driver/Src/stm32f0xx_hal_pcd.c ****   * @param  hpcd PCD handle
 878:Drivers/STM32F0xx_HAL_Driver/Src/stm32f0xx_hal_pcd.c ****   * @param  ep_addr endpoint address
 879:Drivers/STM32F0xx_HAL_Driver/Src/stm32f0xx_hal_pcd.c ****   * @retval Data Size
 880:Drivers/STM32F0xx_HAL_Driver/Src/stm32f0xx_hal_pcd.c ****   */
 881:Drivers/STM32F0xx_HAL_Driver/Src/stm32f0xx_hal_pcd.c **** uint16_t HAL_PCD_EP_GetRxCount(PCD_HandleTypeDef *hpcd, uint8_t ep_addr)
 882:Drivers/STM32F0xx_HAL_Driver/Src/stm32f0xx_hal_pcd.c **** {
 2479              		.loc 1 882 1 view -0
 2480              		.cfi_startproc
 2481              		@ args = 0, pretend = 0, frame = 0
 2482              		@ frame_needed = 0, uses_anonymous_args = 0
 2483              		@ link register save eliminated.
 883:Drivers/STM32F0xx_HAL_Driver/Src/stm32f0xx_hal_pcd.c ****   return hpcd->OUT_ep[ep_addr & 0x7FU].xfer_count;
 2484              		.loc 1 883 3 view .LVU545
 2485              		.loc 1 883 31 is_stmt 0 view .LVU546
 2486 0000 7F23     		movs	r3, #127
 2487 0002 1940     		ands	r1, r3
 2488              	.LVL187:
 2489              		.loc 1 883 39 view .LVU547
 2490 0004 CB00     		lsls	r3, r1, #3
 2491 0006 591A     		subs	r1, r3, r1
 2492 0008 8B00     		lsls	r3, r1, #2
 2493 000a C018     		adds	r0, r0, r3
 2494              	.LVL188:
 2495              		.loc 1 883 39 view .LVU548
 2496 000c 2130     		adds	r0, r0, #33
 2497 000e FF30     		adds	r0, r0, #255
 2498 0010 0088     		ldrh	r0, [r0]
 884:Drivers/STM32F0xx_HAL_Driver/Src/stm32f0xx_hal_pcd.c **** }
 2499              		.loc 1 884 1 view .LVU549
 2500              		@ sp needed
 2501 0012 7047     		bx	lr
 2502              		.cfi_endproc
 2503              	.LFE61:
 2505              		.section	.text.HAL_PCD_EP_SetStall,"ax",%progbits
 2506              		.align	1
 2507              		.global	HAL_PCD_EP_SetStall
 2508              		.syntax unified
 2509              		.code	16
 2510              		.thumb_func
 2511              		.fpu softvfp
 2513              	HAL_PCD_EP_SetStall:
 2514              	.LVL189:
 2515              	.LFB63:
 885:Drivers/STM32F0xx_HAL_Driver/Src/stm32f0xx_hal_pcd.c **** /**
 886:Drivers/STM32F0xx_HAL_Driver/Src/stm32f0xx_hal_pcd.c ****   * @brief  Send an amount of data  
 887:Drivers/STM32F0xx_HAL_Driver/Src/stm32f0xx_hal_pcd.c ****   * @param  hpcd PCD handle
ARM GAS  /tmp/cclz3j42.s 			page 65


 888:Drivers/STM32F0xx_HAL_Driver/Src/stm32f0xx_hal_pcd.c ****   * @param  ep_addr endpoint address
 889:Drivers/STM32F0xx_HAL_Driver/Src/stm32f0xx_hal_pcd.c ****   * @param  pBuf pointer to the transmission buffer   
 890:Drivers/STM32F0xx_HAL_Driver/Src/stm32f0xx_hal_pcd.c ****   * @param  len amount of data to be sent
 891:Drivers/STM32F0xx_HAL_Driver/Src/stm32f0xx_hal_pcd.c ****   * @retval HAL status
 892:Drivers/STM32F0xx_HAL_Driver/Src/stm32f0xx_hal_pcd.c ****   */
 893:Drivers/STM32F0xx_HAL_Driver/Src/stm32f0xx_hal_pcd.c **** HAL_StatusTypeDef HAL_PCD_EP_Transmit(PCD_HandleTypeDef *hpcd, uint8_t ep_addr, uint8_t *pBuf, uint
 894:Drivers/STM32F0xx_HAL_Driver/Src/stm32f0xx_hal_pcd.c **** {
 895:Drivers/STM32F0xx_HAL_Driver/Src/stm32f0xx_hal_pcd.c ****   PCD_EPTypeDef *ep;
 896:Drivers/STM32F0xx_HAL_Driver/Src/stm32f0xx_hal_pcd.c ****   uint16_t pmabuffer = 0U;
 897:Drivers/STM32F0xx_HAL_Driver/Src/stm32f0xx_hal_pcd.c ****     
 898:Drivers/STM32F0xx_HAL_Driver/Src/stm32f0xx_hal_pcd.c ****   ep = &hpcd->IN_ep[ep_addr & 0x7FU];
 899:Drivers/STM32F0xx_HAL_Driver/Src/stm32f0xx_hal_pcd.c ****   
 900:Drivers/STM32F0xx_HAL_Driver/Src/stm32f0xx_hal_pcd.c ****   /*setup and start the Xfer */
 901:Drivers/STM32F0xx_HAL_Driver/Src/stm32f0xx_hal_pcd.c ****   ep->xfer_buff = pBuf;  
 902:Drivers/STM32F0xx_HAL_Driver/Src/stm32f0xx_hal_pcd.c ****   ep->xfer_len = len;
 903:Drivers/STM32F0xx_HAL_Driver/Src/stm32f0xx_hal_pcd.c ****   ep->xfer_count = 0U;
 904:Drivers/STM32F0xx_HAL_Driver/Src/stm32f0xx_hal_pcd.c ****   ep->is_in = 1U;
 905:Drivers/STM32F0xx_HAL_Driver/Src/stm32f0xx_hal_pcd.c ****   ep->num = ep_addr & 0x7FU;
 906:Drivers/STM32F0xx_HAL_Driver/Src/stm32f0xx_hal_pcd.c ****   
 907:Drivers/STM32F0xx_HAL_Driver/Src/stm32f0xx_hal_pcd.c ****   /*Multi packet transfer*/
 908:Drivers/STM32F0xx_HAL_Driver/Src/stm32f0xx_hal_pcd.c ****   if (ep->xfer_len > ep->maxpacket)
 909:Drivers/STM32F0xx_HAL_Driver/Src/stm32f0xx_hal_pcd.c ****   {
 910:Drivers/STM32F0xx_HAL_Driver/Src/stm32f0xx_hal_pcd.c ****     len=ep->maxpacket;
 911:Drivers/STM32F0xx_HAL_Driver/Src/stm32f0xx_hal_pcd.c ****     ep->xfer_len-=len; 
 912:Drivers/STM32F0xx_HAL_Driver/Src/stm32f0xx_hal_pcd.c ****   }
 913:Drivers/STM32F0xx_HAL_Driver/Src/stm32f0xx_hal_pcd.c ****   else
 914:Drivers/STM32F0xx_HAL_Driver/Src/stm32f0xx_hal_pcd.c ****   {  
 915:Drivers/STM32F0xx_HAL_Driver/Src/stm32f0xx_hal_pcd.c ****     len=ep->xfer_len;
 916:Drivers/STM32F0xx_HAL_Driver/Src/stm32f0xx_hal_pcd.c ****     ep->xfer_len =0U;
 917:Drivers/STM32F0xx_HAL_Driver/Src/stm32f0xx_hal_pcd.c ****   }
 918:Drivers/STM32F0xx_HAL_Driver/Src/stm32f0xx_hal_pcd.c ****   
 919:Drivers/STM32F0xx_HAL_Driver/Src/stm32f0xx_hal_pcd.c ****   /* configure and validate Tx endpoint */
 920:Drivers/STM32F0xx_HAL_Driver/Src/stm32f0xx_hal_pcd.c ****   if (ep->doublebuffer == 0U) 
 921:Drivers/STM32F0xx_HAL_Driver/Src/stm32f0xx_hal_pcd.c ****   {
 922:Drivers/STM32F0xx_HAL_Driver/Src/stm32f0xx_hal_pcd.c ****     PCD_WritePMA(hpcd->Instance, ep->xfer_buff, ep->pmaadress, len);
 923:Drivers/STM32F0xx_HAL_Driver/Src/stm32f0xx_hal_pcd.c ****     PCD_SET_EP_TX_CNT(hpcd->Instance, ep->num, len);
 924:Drivers/STM32F0xx_HAL_Driver/Src/stm32f0xx_hal_pcd.c ****   }
 925:Drivers/STM32F0xx_HAL_Driver/Src/stm32f0xx_hal_pcd.c ****   else
 926:Drivers/STM32F0xx_HAL_Driver/Src/stm32f0xx_hal_pcd.c ****   {
 927:Drivers/STM32F0xx_HAL_Driver/Src/stm32f0xx_hal_pcd.c ****     /*Write the data to the USB endpoint*/
 928:Drivers/STM32F0xx_HAL_Driver/Src/stm32f0xx_hal_pcd.c ****     if ((PCD_GET_ENDPOINT(hpcd->Instance, ep->num)& USB_EP_DTOG_TX) == USB_EP_DTOG_TX)
 929:Drivers/STM32F0xx_HAL_Driver/Src/stm32f0xx_hal_pcd.c ****     {
 930:Drivers/STM32F0xx_HAL_Driver/Src/stm32f0xx_hal_pcd.c ****       /*Set the Double buffer counter for pmabuffer1*/
 931:Drivers/STM32F0xx_HAL_Driver/Src/stm32f0xx_hal_pcd.c ****       PCD_SET_EP_DBUF1_CNT(hpcd->Instance, ep->num, ep->is_in, len)
 932:Drivers/STM32F0xx_HAL_Driver/Src/stm32f0xx_hal_pcd.c ****       pmabuffer = ep->pmaaddr1;
 933:Drivers/STM32F0xx_HAL_Driver/Src/stm32f0xx_hal_pcd.c ****     }
 934:Drivers/STM32F0xx_HAL_Driver/Src/stm32f0xx_hal_pcd.c ****     else
 935:Drivers/STM32F0xx_HAL_Driver/Src/stm32f0xx_hal_pcd.c ****     {
 936:Drivers/STM32F0xx_HAL_Driver/Src/stm32f0xx_hal_pcd.c ****       /*Set the Double buffer counter for pmabuffer0*/
 937:Drivers/STM32F0xx_HAL_Driver/Src/stm32f0xx_hal_pcd.c ****       PCD_SET_EP_DBUF0_CNT(hpcd->Instance, ep->num, ep->is_in, len)
 938:Drivers/STM32F0xx_HAL_Driver/Src/stm32f0xx_hal_pcd.c ****       pmabuffer = ep->pmaaddr0;
 939:Drivers/STM32F0xx_HAL_Driver/Src/stm32f0xx_hal_pcd.c ****     }
 940:Drivers/STM32F0xx_HAL_Driver/Src/stm32f0xx_hal_pcd.c **** 
 941:Drivers/STM32F0xx_HAL_Driver/Src/stm32f0xx_hal_pcd.c ****     PCD_WritePMA(hpcd->Instance, ep->xfer_buff, pmabuffer, len);
 942:Drivers/STM32F0xx_HAL_Driver/Src/stm32f0xx_hal_pcd.c ****     PCD_FreeUserBuffer(hpcd->Instance, ep->num, ep->is_in)
 943:Drivers/STM32F0xx_HAL_Driver/Src/stm32f0xx_hal_pcd.c ****   }
 944:Drivers/STM32F0xx_HAL_Driver/Src/stm32f0xx_hal_pcd.c **** 
ARM GAS  /tmp/cclz3j42.s 			page 66


 945:Drivers/STM32F0xx_HAL_Driver/Src/stm32f0xx_hal_pcd.c ****   PCD_SET_EP_TX_STATUS(hpcd->Instance, ep->num, USB_EP_TX_VALID)
 946:Drivers/STM32F0xx_HAL_Driver/Src/stm32f0xx_hal_pcd.c ****      
 947:Drivers/STM32F0xx_HAL_Driver/Src/stm32f0xx_hal_pcd.c ****   return HAL_OK;
 948:Drivers/STM32F0xx_HAL_Driver/Src/stm32f0xx_hal_pcd.c **** }
 949:Drivers/STM32F0xx_HAL_Driver/Src/stm32f0xx_hal_pcd.c **** 
 950:Drivers/STM32F0xx_HAL_Driver/Src/stm32f0xx_hal_pcd.c **** /**
 951:Drivers/STM32F0xx_HAL_Driver/Src/stm32f0xx_hal_pcd.c ****   * @brief  Set a STALL condition over an endpoint
 952:Drivers/STM32F0xx_HAL_Driver/Src/stm32f0xx_hal_pcd.c ****   * @param  hpcd PCD handle
 953:Drivers/STM32F0xx_HAL_Driver/Src/stm32f0xx_hal_pcd.c ****   * @param  ep_addr endpoint address
 954:Drivers/STM32F0xx_HAL_Driver/Src/stm32f0xx_hal_pcd.c ****   * @retval HAL status
 955:Drivers/STM32F0xx_HAL_Driver/Src/stm32f0xx_hal_pcd.c ****   */
 956:Drivers/STM32F0xx_HAL_Driver/Src/stm32f0xx_hal_pcd.c **** HAL_StatusTypeDef HAL_PCD_EP_SetStall(PCD_HandleTypeDef *hpcd, uint8_t ep_addr)
 957:Drivers/STM32F0xx_HAL_Driver/Src/stm32f0xx_hal_pcd.c **** {
 2516              		.loc 1 957 1 is_stmt 1 view -0
 2517              		.cfi_startproc
 2518              		@ args = 0, pretend = 0, frame = 0
 2519              		@ frame_needed = 0, uses_anonymous_args = 0
 2520              		.loc 1 957 1 is_stmt 0 view .LVU551
 2521 0000 10B5     		push	{r4, lr}
 2522              	.LCFI8:
 2523              		.cfi_def_cfa_offset 8
 2524              		.cfi_offset 4, -8
 2525              		.cfi_offset 14, -4
 958:Drivers/STM32F0xx_HAL_Driver/Src/stm32f0xx_hal_pcd.c ****   PCD_EPTypeDef *ep;
 2526              		.loc 1 958 3 is_stmt 1 view .LVU552
 959:Drivers/STM32F0xx_HAL_Driver/Src/stm32f0xx_hal_pcd.c ****    
 960:Drivers/STM32F0xx_HAL_Driver/Src/stm32f0xx_hal_pcd.c ****   __HAL_LOCK(hpcd); 
 2527              		.loc 1 960 3 view .LVU553
 2528              		.loc 1 960 3 view .LVU554
 2529 0002 F423     		movs	r3, #244
 2530 0004 5B00     		lsls	r3, r3, #1
 2531 0006 C35C     		ldrb	r3, [r0, r3]
 2532 0008 012B     		cmp	r3, #1
 2533 000a 4DD0     		beq	.L122
 2534              		.loc 1 960 3 discriminator 2 view .LVU555
 2535 000c F423     		movs	r3, #244
 2536 000e 5B00     		lsls	r3, r3, #1
 2537 0010 0122     		movs	r2, #1
 2538 0012 C254     		strb	r2, [r0, r3]
 961:Drivers/STM32F0xx_HAL_Driver/Src/stm32f0xx_hal_pcd.c ****    
 962:Drivers/STM32F0xx_HAL_Driver/Src/stm32f0xx_hal_pcd.c ****   if ((0x80U & ep_addr) == 0x80U)
 2539              		.loc 1 962 3 discriminator 2 view .LVU556
 2540              		.loc 1 962 25 is_stmt 0 discriminator 2 view .LVU557
 2541 0014 4CB2     		sxtb	r4, r1
 2542              		.loc 1 962 6 discriminator 2 view .LVU558
 2543 0016 002C     		cmp	r4, #0
 2544 0018 20DB     		blt	.L123
 963:Drivers/STM32F0xx_HAL_Driver/Src/stm32f0xx_hal_pcd.c ****   {
 964:Drivers/STM32F0xx_HAL_Driver/Src/stm32f0xx_hal_pcd.c ****     ep = &hpcd->IN_ep[ep_addr & 0x7FU];
 965:Drivers/STM32F0xx_HAL_Driver/Src/stm32f0xx_hal_pcd.c ****   }
 966:Drivers/STM32F0xx_HAL_Driver/Src/stm32f0xx_hal_pcd.c ****   else
 967:Drivers/STM32F0xx_HAL_Driver/Src/stm32f0xx_hal_pcd.c ****   {
 968:Drivers/STM32F0xx_HAL_Driver/Src/stm32f0xx_hal_pcd.c ****     ep = &hpcd->OUT_ep[ep_addr];
 2545              		.loc 1 968 5 is_stmt 1 view .LVU559
 2546              		.loc 1 968 8 is_stmt 0 view .LVU560
 2547 001a CA00     		lsls	r2, r1, #3
 2548 001c 521A     		subs	r2, r2, r1
ARM GAS  /tmp/cclz3j42.s 			page 67


 2549 001e 9300     		lsls	r3, r2, #2
 2550 0020 0933     		adds	r3, r3, #9
 2551 0022 FF33     		adds	r3, r3, #255
 2552 0024 C318     		adds	r3, r0, r3
 2553              	.LVL190:
 2554              	.L118:
 969:Drivers/STM32F0xx_HAL_Driver/Src/stm32f0xx_hal_pcd.c ****   }
 970:Drivers/STM32F0xx_HAL_Driver/Src/stm32f0xx_hal_pcd.c ****   
 971:Drivers/STM32F0xx_HAL_Driver/Src/stm32f0xx_hal_pcd.c ****   ep->is_stall = 1;
 2555              		.loc 1 971 3 is_stmt 1 view .LVU561
 2556              		.loc 1 971 16 is_stmt 0 view .LVU562
 2557 0026 0122     		movs	r2, #1
 2558 0028 9A70     		strb	r2, [r3, #2]
 972:Drivers/STM32F0xx_HAL_Driver/Src/stm32f0xx_hal_pcd.c ****   ep->num   = ep_addr & 0x7FU;
 2559              		.loc 1 972 3 is_stmt 1 view .LVU563
 2560              		.loc 1 972 23 is_stmt 0 view .LVU564
 2561 002a 7E32     		adds	r2, r2, #126
 2562 002c 1140     		ands	r1, r2
 2563              	.LVL191:
 2564              		.loc 1 972 13 view .LVU565
 2565 002e 1970     		strb	r1, [r3]
 973:Drivers/STM32F0xx_HAL_Driver/Src/stm32f0xx_hal_pcd.c ****   ep->is_in = ((ep_addr & 0x80U) == 0x80U);
 2566              		.loc 1 973 3 is_stmt 1 view .LVU566
 2567              		.loc 1 973 34 is_stmt 0 view .LVU567
 2568 0030 E40F     		lsrs	r4, r4, #31
 2569              	.LVL192:
 2570              		.loc 1 973 13 view .LVU568
 2571 0032 5C70     		strb	r4, [r3, #1]
 974:Drivers/STM32F0xx_HAL_Driver/Src/stm32f0xx_hal_pcd.c ****   
 975:Drivers/STM32F0xx_HAL_Driver/Src/stm32f0xx_hal_pcd.c ****   if (ep->num == 0U)
 2572              		.loc 1 975 3 is_stmt 1 view .LVU569
 2573              		.loc 1 975 6 is_stmt 0 view .LVU570
 2574 0034 0029     		cmp	r1, #0
 2575 0036 1AD1     		bne	.L119
 2576              	.LBB29:
 976:Drivers/STM32F0xx_HAL_Driver/Src/stm32f0xx_hal_pcd.c ****   {
 977:Drivers/STM32F0xx_HAL_Driver/Src/stm32f0xx_hal_pcd.c ****     /* This macro sets STALL status for RX & TX*/ 
 978:Drivers/STM32F0xx_HAL_Driver/Src/stm32f0xx_hal_pcd.c ****     PCD_SET_EP_TXRX_STATUS(hpcd->Instance, ep->num, USB_EP_RX_STALL, USB_EP_TX_STALL)
 2577              		.loc 1 978 5 is_stmt 1 view .LVU571
 2578              		.loc 1 978 5 view .LVU572
 2579 0038 8900     		lsls	r1, r1, #2
 2580 003a 0368     		ldr	r3, [r0]
 2581              	.LVL193:
 2582              		.loc 1 978 5 is_stmt 0 view .LVU573
 2583 003c 9C46     		mov	ip, r3
 2584 003e 6144     		add	r1, r1, ip
 2585 0040 0A88     		ldrh	r2, [r1]
 2586              	.LVL194:
 2587              		.loc 1 978 5 is_stmt 1 view .LVU574
 2588              		.loc 1 978 5 view .LVU575
 2589              		.loc 1 978 5 view .LVU576
 2590              		.loc 1 978 5 view .LVU577
 2591              		.loc 1 978 5 view .LVU578
 2592              		.loc 1 978 5 view .LVU579
 2593              		.loc 1 978 5 view .LVU580
 2594 0042 1A4B     		ldr	r3, .L124
 2595 0044 1A40     		ands	r2, r3
ARM GAS  /tmp/cclz3j42.s 			page 68


 2596              	.LVL195:
 2597              		.loc 1 978 5 is_stmt 0 view .LVU581
 2598 0046 1A4B     		ldr	r3, .L124+4
 2599 0048 5A40     		eors	r2, r3
 2600 004a 1A4B     		ldr	r3, .L124+8
 2601 004c 1343     		orrs	r3, r2
 2602 004e 0B80     		strh	r3, [r1]
 2603              	.LVL196:
 2604              	.L120:
 2605              		.loc 1 978 5 view .LVU582
 2606              	.LBE29:
 979:Drivers/STM32F0xx_HAL_Driver/Src/stm32f0xx_hal_pcd.c ****   }
 980:Drivers/STM32F0xx_HAL_Driver/Src/stm32f0xx_hal_pcd.c ****   else
 981:Drivers/STM32F0xx_HAL_Driver/Src/stm32f0xx_hal_pcd.c ****   {
 982:Drivers/STM32F0xx_HAL_Driver/Src/stm32f0xx_hal_pcd.c ****     if (ep->is_in)
 983:Drivers/STM32F0xx_HAL_Driver/Src/stm32f0xx_hal_pcd.c ****     {
 984:Drivers/STM32F0xx_HAL_Driver/Src/stm32f0xx_hal_pcd.c ****       PCD_SET_EP_TX_STATUS(hpcd->Instance, ep->num , USB_EP_TX_STALL)
 985:Drivers/STM32F0xx_HAL_Driver/Src/stm32f0xx_hal_pcd.c ****     }
 986:Drivers/STM32F0xx_HAL_Driver/Src/stm32f0xx_hal_pcd.c ****     else
 987:Drivers/STM32F0xx_HAL_Driver/Src/stm32f0xx_hal_pcd.c ****     {
 988:Drivers/STM32F0xx_HAL_Driver/Src/stm32f0xx_hal_pcd.c ****       PCD_SET_EP_RX_STATUS(hpcd->Instance, ep->num , USB_EP_RX_STALL)
 989:Drivers/STM32F0xx_HAL_Driver/Src/stm32f0xx_hal_pcd.c ****     }
 990:Drivers/STM32F0xx_HAL_Driver/Src/stm32f0xx_hal_pcd.c ****   }
 991:Drivers/STM32F0xx_HAL_Driver/Src/stm32f0xx_hal_pcd.c ****   __HAL_UNLOCK(hpcd); 
 2607              		.loc 1 991 3 is_stmt 1 view .LVU583
 2608              		.loc 1 991 3 view .LVU584
 2609 0050 F423     		movs	r3, #244
 2610 0052 5B00     		lsls	r3, r3, #1
 2611 0054 0022     		movs	r2, #0
 2612 0056 C254     		strb	r2, [r0, r3]
 992:Drivers/STM32F0xx_HAL_Driver/Src/stm32f0xx_hal_pcd.c ****   
 993:Drivers/STM32F0xx_HAL_Driver/Src/stm32f0xx_hal_pcd.c ****   return HAL_OK;
 2613              		.loc 1 993 3 view .LVU585
 2614              		.loc 1 993 10 is_stmt 0 view .LVU586
 2615 0058 0020     		movs	r0, #0
 2616              	.LVL197:
 2617              	.L116:
 994:Drivers/STM32F0xx_HAL_Driver/Src/stm32f0xx_hal_pcd.c **** }
 2618              		.loc 1 994 1 view .LVU587
 2619              		@ sp needed
 2620 005a 10BD     		pop	{r4, pc}
 2621              	.LVL198:
 2622              	.L123:
 964:Drivers/STM32F0xx_HAL_Driver/Src/stm32f0xx_hal_pcd.c ****   }
 2623              		.loc 1 964 5 is_stmt 1 view .LVU588
 964:Drivers/STM32F0xx_HAL_Driver/Src/stm32f0xx_hal_pcd.c ****   }
 2624              		.loc 1 964 31 is_stmt 0 view .LVU589
 2625 005c 6A3B     		subs	r3, r3, #106
 2626 005e FF3B     		subs	r3, r3, #255
 2627 0060 0B40     		ands	r3, r1
 964:Drivers/STM32F0xx_HAL_Driver/Src/stm32f0xx_hal_pcd.c ****   }
 2628              		.loc 1 964 8 view .LVU590
 2629 0062 DA00     		lsls	r2, r3, #3
 2630 0064 D21A     		subs	r2, r2, r3
 2631 0066 9300     		lsls	r3, r2, #2
 2632 0068 2833     		adds	r3, r3, #40
 2633 006a C318     		adds	r3, r0, r3
ARM GAS  /tmp/cclz3j42.s 			page 69


 2634              	.LVL199:
 964:Drivers/STM32F0xx_HAL_Driver/Src/stm32f0xx_hal_pcd.c ****   }
 2635              		.loc 1 964 8 view .LVU591
 2636 006c DBE7     		b	.L118
 2637              	.LVL200:
 2638              	.L119:
 982:Drivers/STM32F0xx_HAL_Driver/Src/stm32f0xx_hal_pcd.c ****     {
 2639              		.loc 1 982 5 is_stmt 1 view .LVU592
 982:Drivers/STM32F0xx_HAL_Driver/Src/stm32f0xx_hal_pcd.c ****     {
 2640              		.loc 1 982 8 is_stmt 0 view .LVU593
 2641 006e 002C     		cmp	r4, #0
 2642 0070 0CD0     		beq	.L121
 2643              	.LBB30:
 984:Drivers/STM32F0xx_HAL_Driver/Src/stm32f0xx_hal_pcd.c ****     }
 2644              		.loc 1 984 7 is_stmt 1 view .LVU594
 984:Drivers/STM32F0xx_HAL_Driver/Src/stm32f0xx_hal_pcd.c ****     }
 2645              		.loc 1 984 7 view .LVU595
 2646 0072 8900     		lsls	r1, r1, #2
 2647 0074 0368     		ldr	r3, [r0]
 2648              	.LVL201:
 984:Drivers/STM32F0xx_HAL_Driver/Src/stm32f0xx_hal_pcd.c ****     }
 2649              		.loc 1 984 7 is_stmt 0 view .LVU596
 2650 0076 9C46     		mov	ip, r3
 2651 0078 6144     		add	r1, r1, ip
 2652 007a 0B88     		ldrh	r3, [r1]
 2653 007c 0E4A     		ldr	r2, .L124+12
 2654 007e 1340     		ands	r3, r2
 2655              	.LVL202:
 984:Drivers/STM32F0xx_HAL_Driver/Src/stm32f0xx_hal_pcd.c ****     }
 2656              		.loc 1 984 7 is_stmt 1 view .LVU597
 984:Drivers/STM32F0xx_HAL_Driver/Src/stm32f0xx_hal_pcd.c ****     }
 2657              		.loc 1 984 7 view .LVU598
 2658 0080 1022     		movs	r2, #16
 2659 0082 5340     		eors	r3, r2
 2660              	.LVL203:
 984:Drivers/STM32F0xx_HAL_Driver/Src/stm32f0xx_hal_pcd.c ****     }
 2661              		.loc 1 984 7 view .LVU599
 984:Drivers/STM32F0xx_HAL_Driver/Src/stm32f0xx_hal_pcd.c ****     }
 2662              		.loc 1 984 7 view .LVU600
 2663 0084 0B4A     		ldr	r2, .L124+8
 2664 0086 1343     		orrs	r3, r2
 2665              	.LVL204:
 984:Drivers/STM32F0xx_HAL_Driver/Src/stm32f0xx_hal_pcd.c ****     }
 2666              		.loc 1 984 7 is_stmt 0 view .LVU601
 2667 0088 0B80     		strh	r3, [r1]
 984:Drivers/STM32F0xx_HAL_Driver/Src/stm32f0xx_hal_pcd.c ****     }
 2668              		.loc 1 984 7 view .LVU602
 2669              	.LBE30:
 2670 008a E1E7     		b	.L120
 2671              	.LVL205:
 2672              	.L121:
 2673              	.LBB31:
 988:Drivers/STM32F0xx_HAL_Driver/Src/stm32f0xx_hal_pcd.c ****     }
 2674              		.loc 1 988 7 is_stmt 1 view .LVU603
 988:Drivers/STM32F0xx_HAL_Driver/Src/stm32f0xx_hal_pcd.c ****     }
 2675              		.loc 1 988 7 view .LVU604
 2676 008c 8900     		lsls	r1, r1, #2
ARM GAS  /tmp/cclz3j42.s 			page 70


 2677 008e 0368     		ldr	r3, [r0]
 2678              	.LVL206:
 988:Drivers/STM32F0xx_HAL_Driver/Src/stm32f0xx_hal_pcd.c ****     }
 2679              		.loc 1 988 7 is_stmt 0 view .LVU605
 2680 0090 9C46     		mov	ip, r3
 2681 0092 6144     		add	r1, r1, ip
 2682 0094 0A88     		ldrh	r2, [r1]
 2683 0096 094B     		ldr	r3, .L124+16
 2684 0098 1A40     		ands	r2, r3
 2685              	.LVL207:
 988:Drivers/STM32F0xx_HAL_Driver/Src/stm32f0xx_hal_pcd.c ****     }
 2686              		.loc 1 988 7 is_stmt 1 view .LVU606
 988:Drivers/STM32F0xx_HAL_Driver/Src/stm32f0xx_hal_pcd.c ****     }
 2687              		.loc 1 988 7 view .LVU607
 2688 009a 8023     		movs	r3, #128
 2689 009c 5B01     		lsls	r3, r3, #5
 2690 009e 5A40     		eors	r2, r3
 2691              	.LVL208:
 988:Drivers/STM32F0xx_HAL_Driver/Src/stm32f0xx_hal_pcd.c ****     }
 2692              		.loc 1 988 7 view .LVU608
 988:Drivers/STM32F0xx_HAL_Driver/Src/stm32f0xx_hal_pcd.c ****     }
 2693              		.loc 1 988 7 view .LVU609
 2694 00a0 044B     		ldr	r3, .L124+8
 2695 00a2 1343     		orrs	r3, r2
 2696 00a4 0B80     		strh	r3, [r1]
 2697 00a6 D3E7     		b	.L120
 2698              	.LVL209:
 2699              	.L122:
 988:Drivers/STM32F0xx_HAL_Driver/Src/stm32f0xx_hal_pcd.c ****     }
 2700              		.loc 1 988 7 is_stmt 0 view .LVU610
 2701              	.LBE31:
 960:Drivers/STM32F0xx_HAL_Driver/Src/stm32f0xx_hal_pcd.c ****    
 2702              		.loc 1 960 3 view .LVU611
 2703 00a8 0220     		movs	r0, #2
 2704              	.LVL210:
 960:Drivers/STM32F0xx_HAL_Driver/Src/stm32f0xx_hal_pcd.c ****    
 2705              		.loc 1 960 3 view .LVU612
 2706 00aa D6E7     		b	.L116
 2707              	.L125:
 2708              		.align	2
 2709              	.L124:
 2710 00ac BFBFFFFF 		.word	-16449
 2711 00b0 10100000 		.word	4112
 2712 00b4 8080FFFF 		.word	-32640
 2713 00b8 BF8FFFFF 		.word	-28737
 2714 00bc 8FBFFFFF 		.word	-16497
 2715              		.cfi_endproc
 2716              	.LFE63:
 2718              		.section	.text.HAL_PCD_EP_ClrStall,"ax",%progbits
 2719              		.align	1
 2720              		.global	HAL_PCD_EP_ClrStall
 2721              		.syntax unified
 2722              		.code	16
 2723              		.thumb_func
 2724              		.fpu softvfp
 2726              	HAL_PCD_EP_ClrStall:
 2727              	.LVL211:
ARM GAS  /tmp/cclz3j42.s 			page 71


 2728              	.LFB64:
 995:Drivers/STM32F0xx_HAL_Driver/Src/stm32f0xx_hal_pcd.c **** 
 996:Drivers/STM32F0xx_HAL_Driver/Src/stm32f0xx_hal_pcd.c **** /**
 997:Drivers/STM32F0xx_HAL_Driver/Src/stm32f0xx_hal_pcd.c ****   * @brief  Clear a STALL condition over in an endpoint
 998:Drivers/STM32F0xx_HAL_Driver/Src/stm32f0xx_hal_pcd.c ****   * @param  hpcd PCD handle
 999:Drivers/STM32F0xx_HAL_Driver/Src/stm32f0xx_hal_pcd.c ****   * @param  ep_addr endpoint address
1000:Drivers/STM32F0xx_HAL_Driver/Src/stm32f0xx_hal_pcd.c ****   * @retval HAL status
1001:Drivers/STM32F0xx_HAL_Driver/Src/stm32f0xx_hal_pcd.c ****   */
1002:Drivers/STM32F0xx_HAL_Driver/Src/stm32f0xx_hal_pcd.c **** HAL_StatusTypeDef HAL_PCD_EP_ClrStall(PCD_HandleTypeDef *hpcd, uint8_t ep_addr)
1003:Drivers/STM32F0xx_HAL_Driver/Src/stm32f0xx_hal_pcd.c **** {
 2729              		.loc 1 1003 1 is_stmt 1 view -0
 2730              		.cfi_startproc
 2731              		@ args = 0, pretend = 0, frame = 0
 2732              		@ frame_needed = 0, uses_anonymous_args = 0
 2733              		.loc 1 1003 1 is_stmt 0 view .LVU614
 2734 0000 30B5     		push	{r4, r5, lr}
 2735              	.LCFI9:
 2736              		.cfi_def_cfa_offset 12
 2737              		.cfi_offset 4, -12
 2738              		.cfi_offset 5, -8
 2739              		.cfi_offset 14, -4
1004:Drivers/STM32F0xx_HAL_Driver/Src/stm32f0xx_hal_pcd.c ****   PCD_EPTypeDef *ep;
 2740              		.loc 1 1004 3 is_stmt 1 view .LVU615
1005:Drivers/STM32F0xx_HAL_Driver/Src/stm32f0xx_hal_pcd.c ****   
1006:Drivers/STM32F0xx_HAL_Driver/Src/stm32f0xx_hal_pcd.c ****   if ((0x80U & ep_addr) == 0x80U)
 2741              		.loc 1 1006 3 view .LVU616
 2742              		.loc 1 1006 25 is_stmt 0 view .LVU617
 2743 0002 4AB2     		sxtb	r2, r1
 2744              		.loc 1 1006 6 view .LVU618
 2745 0004 002A     		cmp	r2, #0
 2746 0006 38DB     		blt	.L135
1007:Drivers/STM32F0xx_HAL_Driver/Src/stm32f0xx_hal_pcd.c ****   {
1008:Drivers/STM32F0xx_HAL_Driver/Src/stm32f0xx_hal_pcd.c ****     ep = &hpcd->IN_ep[ep_addr & 0x7FU];
1009:Drivers/STM32F0xx_HAL_Driver/Src/stm32f0xx_hal_pcd.c ****   }
1010:Drivers/STM32F0xx_HAL_Driver/Src/stm32f0xx_hal_pcd.c ****   else
1011:Drivers/STM32F0xx_HAL_Driver/Src/stm32f0xx_hal_pcd.c ****   {
1012:Drivers/STM32F0xx_HAL_Driver/Src/stm32f0xx_hal_pcd.c ****     ep = &hpcd->OUT_ep[ep_addr];
 2747              		.loc 1 1012 5 is_stmt 1 view .LVU619
 2748              		.loc 1 1012 8 is_stmt 0 view .LVU620
 2749 0008 CD00     		lsls	r5, r1, #3
 2750 000a 6D1A     		subs	r5, r5, r1
 2751 000c AB00     		lsls	r3, r5, #2
 2752 000e 0933     		adds	r3, r3, #9
 2753 0010 FF33     		adds	r3, r3, #255
 2754 0012 C318     		adds	r3, r0, r3
 2755              	.LVL212:
 2756              	.L128:
1013:Drivers/STM32F0xx_HAL_Driver/Src/stm32f0xx_hal_pcd.c ****   }
1014:Drivers/STM32F0xx_HAL_Driver/Src/stm32f0xx_hal_pcd.c ****   
1015:Drivers/STM32F0xx_HAL_Driver/Src/stm32f0xx_hal_pcd.c ****   ep->is_stall = 0U;
 2757              		.loc 1 1015 3 is_stmt 1 view .LVU621
 2758              		.loc 1 1015 16 is_stmt 0 view .LVU622
 2759 0014 0024     		movs	r4, #0
 2760 0016 9C70     		strb	r4, [r3, #2]
1016:Drivers/STM32F0xx_HAL_Driver/Src/stm32f0xx_hal_pcd.c ****   ep->num   = ep_addr & 0x7FU;
 2761              		.loc 1 1016 3 is_stmt 1 view .LVU623
 2762              		.loc 1 1016 23 is_stmt 0 view .LVU624
ARM GAS  /tmp/cclz3j42.s 			page 72


 2763 0018 7F34     		adds	r4, r4, #127
 2764 001a 0C40     		ands	r4, r1
 2765              		.loc 1 1016 13 view .LVU625
 2766 001c 1C70     		strb	r4, [r3]
1017:Drivers/STM32F0xx_HAL_Driver/Src/stm32f0xx_hal_pcd.c ****   ep->is_in = ((ep_addr & 0x80U) == 0x80U);
 2767              		.loc 1 1017 3 is_stmt 1 view .LVU626
 2768              		.loc 1 1017 34 is_stmt 0 view .LVU627
 2769 001e D20F     		lsrs	r2, r2, #31
 2770              		.loc 1 1017 13 view .LVU628
 2771 0020 5A70     		strb	r2, [r3, #1]
1018:Drivers/STM32F0xx_HAL_Driver/Src/stm32f0xx_hal_pcd.c ****   
1019:Drivers/STM32F0xx_HAL_Driver/Src/stm32f0xx_hal_pcd.c ****   __HAL_LOCK(hpcd); 
 2772              		.loc 1 1019 3 is_stmt 1 view .LVU629
 2773              		.loc 1 1019 3 view .LVU630
 2774 0022 F422     		movs	r2, #244
 2775 0024 5200     		lsls	r2, r2, #1
 2776 0026 825C     		ldrb	r2, [r0, r2]
 2777 0028 012A     		cmp	r2, #1
 2778 002a 4AD0     		beq	.L134
 2779              		.loc 1 1019 3 discriminator 2 view .LVU631
 2780 002c F422     		movs	r2, #244
 2781 002e 5200     		lsls	r2, r2, #1
 2782 0030 0121     		movs	r1, #1
 2783              	.LVL213:
 2784              		.loc 1 1019 3 is_stmt 0 discriminator 2 view .LVU632
 2785 0032 8154     		strb	r1, [r0, r2]
1020:Drivers/STM32F0xx_HAL_Driver/Src/stm32f0xx_hal_pcd.c ****   
1021:Drivers/STM32F0xx_HAL_Driver/Src/stm32f0xx_hal_pcd.c ****   if (ep->is_in)
 2786              		.loc 1 1021 3 is_stmt 1 discriminator 2 view .LVU633
 2787              		.loc 1 1021 9 is_stmt 0 discriminator 2 view .LVU634
 2788 0034 5A78     		ldrb	r2, [r3, #1]
 2789              		.loc 1 1021 6 discriminator 2 view .LVU635
 2790 0036 002A     		cmp	r2, #0
 2791 0038 27D0     		beq	.L130
1022:Drivers/STM32F0xx_HAL_Driver/Src/stm32f0xx_hal_pcd.c ****   {
1023:Drivers/STM32F0xx_HAL_Driver/Src/stm32f0xx_hal_pcd.c ****     PCD_CLEAR_TX_DTOG(hpcd->Instance, ep->num)
 2792              		.loc 1 1023 5 is_stmt 1 view .LVU636
 2793 003a 1A78     		ldrb	r2, [r3]
 2794 003c 9200     		lsls	r2, r2, #2
 2795 003e 0168     		ldr	r1, [r0]
 2796 0040 8C46     		mov	ip, r1
 2797 0042 6244     		add	r2, r2, ip
 2798 0044 1188     		ldrh	r1, [r2]
 2799 0046 4C06     		lsls	r4, r1, #25
 2800 0048 04D5     		bpl	.L131
 2801              		.loc 1 1023 5 discriminator 1 view .LVU637
 2802 004a 1F4C     		ldr	r4, .L136
 2803 004c 2140     		ands	r1, r4
 2804 004e 1F4C     		ldr	r4, .L136+4
 2805 0050 2143     		orrs	r1, r4
 2806 0052 1180     		strh	r1, [r2]
 2807              	.L131:
 2808              	.LBB32:
1024:Drivers/STM32F0xx_HAL_Driver/Src/stm32f0xx_hal_pcd.c ****     PCD_SET_EP_TX_STATUS(hpcd->Instance, ep->num, USB_EP_TX_VALID)
 2809              		.loc 1 1024 5 view .LVU638
 2810              		.loc 1 1024 5 view .LVU639
 2811 0054 1A78     		ldrb	r2, [r3]
ARM GAS  /tmp/cclz3j42.s 			page 73


 2812 0056 9200     		lsls	r2, r2, #2
 2813 0058 0368     		ldr	r3, [r0]
 2814              	.LVL214:
 2815              		.loc 1 1024 5 is_stmt 0 view .LVU640
 2816 005a 9C46     		mov	ip, r3
 2817 005c 6244     		add	r2, r2, ip
 2818 005e 1388     		ldrh	r3, [r2]
 2819 0060 1B49     		ldr	r1, .L136+8
 2820 0062 0B40     		ands	r3, r1
 2821              	.LVL215:
 2822              		.loc 1 1024 5 is_stmt 1 view .LVU641
 2823              		.loc 1 1024 5 view .LVU642
 2824              		.loc 1 1024 5 view .LVU643
 2825              		.loc 1 1024 5 view .LVU644
 2826 0064 3021     		movs	r1, #48
 2827 0066 4B40     		eors	r3, r1
 2828              	.LVL216:
 2829              		.loc 1 1024 5 view .LVU645
 2830 0068 1A49     		ldr	r1, .L136+12
 2831 006a 0B43     		orrs	r3, r1
 2832              	.LVL217:
 2833              		.loc 1 1024 5 is_stmt 0 view .LVU646
 2834 006c 1380     		strh	r3, [r2]
 2835              	.L132:
 2836              		.loc 1 1024 5 view .LVU647
 2837              	.LBE32:
1025:Drivers/STM32F0xx_HAL_Driver/Src/stm32f0xx_hal_pcd.c ****   }
1026:Drivers/STM32F0xx_HAL_Driver/Src/stm32f0xx_hal_pcd.c ****   else
1027:Drivers/STM32F0xx_HAL_Driver/Src/stm32f0xx_hal_pcd.c ****   {
1028:Drivers/STM32F0xx_HAL_Driver/Src/stm32f0xx_hal_pcd.c ****     PCD_CLEAR_RX_DTOG(hpcd->Instance, ep->num)
1029:Drivers/STM32F0xx_HAL_Driver/Src/stm32f0xx_hal_pcd.c ****     PCD_SET_EP_RX_STATUS(hpcd->Instance, ep->num, USB_EP_RX_VALID)
1030:Drivers/STM32F0xx_HAL_Driver/Src/stm32f0xx_hal_pcd.c ****   }
1031:Drivers/STM32F0xx_HAL_Driver/Src/stm32f0xx_hal_pcd.c ****   __HAL_UNLOCK(hpcd); 
 2838              		.loc 1 1031 3 is_stmt 1 view .LVU648
 2839              		.loc 1 1031 3 view .LVU649
 2840 006e F423     		movs	r3, #244
 2841 0070 5B00     		lsls	r3, r3, #1
 2842 0072 0022     		movs	r2, #0
 2843 0074 C254     		strb	r2, [r0, r3]
1032:Drivers/STM32F0xx_HAL_Driver/Src/stm32f0xx_hal_pcd.c ****     
1033:Drivers/STM32F0xx_HAL_Driver/Src/stm32f0xx_hal_pcd.c ****   return HAL_OK;
 2844              		.loc 1 1033 3 view .LVU650
 2845              		.loc 1 1033 10 is_stmt 0 view .LVU651
 2846 0076 0020     		movs	r0, #0
 2847              	.LVL218:
 2848              	.L129:
1034:Drivers/STM32F0xx_HAL_Driver/Src/stm32f0xx_hal_pcd.c **** }
 2849              		.loc 1 1034 1 view .LVU652
 2850              		@ sp needed
 2851 0078 30BD     		pop	{r4, r5, pc}
 2852              	.LVL219:
 2853              	.L135:
1008:Drivers/STM32F0xx_HAL_Driver/Src/stm32f0xx_hal_pcd.c ****   }
 2854              		.loc 1 1008 5 is_stmt 1 view .LVU653
1008:Drivers/STM32F0xx_HAL_Driver/Src/stm32f0xx_hal_pcd.c ****   }
 2855              		.loc 1 1008 31 is_stmt 0 view .LVU654
 2856 007a 7F23     		movs	r3, #127
ARM GAS  /tmp/cclz3j42.s 			page 74


 2857 007c 0B40     		ands	r3, r1
1008:Drivers/STM32F0xx_HAL_Driver/Src/stm32f0xx_hal_pcd.c ****   }
 2858              		.loc 1 1008 8 view .LVU655
 2859 007e DC00     		lsls	r4, r3, #3
 2860 0080 E41A     		subs	r4, r4, r3
 2861 0082 A300     		lsls	r3, r4, #2
 2862 0084 2833     		adds	r3, r3, #40
 2863 0086 C318     		adds	r3, r0, r3
 2864              	.LVL220:
1008:Drivers/STM32F0xx_HAL_Driver/Src/stm32f0xx_hal_pcd.c ****   }
 2865              		.loc 1 1008 8 view .LVU656
 2866 0088 C4E7     		b	.L128
 2867              	.LVL221:
 2868              	.L130:
1028:Drivers/STM32F0xx_HAL_Driver/Src/stm32f0xx_hal_pcd.c ****     PCD_SET_EP_RX_STATUS(hpcd->Instance, ep->num, USB_EP_RX_VALID)
 2869              		.loc 1 1028 5 is_stmt 1 view .LVU657
 2870 008a 1A78     		ldrb	r2, [r3]
 2871 008c 9200     		lsls	r2, r2, #2
 2872 008e 0168     		ldr	r1, [r0]
 2873 0090 8C46     		mov	ip, r1
 2874 0092 6244     		add	r2, r2, ip
 2875 0094 1188     		ldrh	r1, [r2]
 2876 0096 4C04     		lsls	r4, r1, #17
 2877 0098 04D5     		bpl	.L133
1028:Drivers/STM32F0xx_HAL_Driver/Src/stm32f0xx_hal_pcd.c ****     PCD_SET_EP_RX_STATUS(hpcd->Instance, ep->num, USB_EP_RX_VALID)
 2878              		.loc 1 1028 5 discriminator 1 view .LVU658
 2879 009a 0B4C     		ldr	r4, .L136
 2880 009c 2140     		ands	r1, r4
 2881 009e 0E4C     		ldr	r4, .L136+16
 2882 00a0 2143     		orrs	r1, r4
 2883 00a2 1180     		strh	r1, [r2]
 2884              	.L133:
 2885              	.LBB33:
1029:Drivers/STM32F0xx_HAL_Driver/Src/stm32f0xx_hal_pcd.c ****   }
 2886              		.loc 1 1029 5 view .LVU659
1029:Drivers/STM32F0xx_HAL_Driver/Src/stm32f0xx_hal_pcd.c ****   }
 2887              		.loc 1 1029 5 view .LVU660
 2888 00a4 1B78     		ldrb	r3, [r3]
 2889              	.LVL222:
1029:Drivers/STM32F0xx_HAL_Driver/Src/stm32f0xx_hal_pcd.c ****   }
 2890              		.loc 1 1029 5 is_stmt 0 view .LVU661
 2891 00a6 9B00     		lsls	r3, r3, #2
 2892 00a8 0268     		ldr	r2, [r0]
 2893 00aa 9446     		mov	ip, r2
 2894 00ac 6344     		add	r3, r3, ip
 2895 00ae 1988     		ldrh	r1, [r3]
 2896 00b0 0A4A     		ldr	r2, .L136+20
 2897 00b2 1140     		ands	r1, r2
 2898              	.LVL223:
1029:Drivers/STM32F0xx_HAL_Driver/Src/stm32f0xx_hal_pcd.c ****   }
 2899              		.loc 1 1029 5 is_stmt 1 view .LVU662
1029:Drivers/STM32F0xx_HAL_Driver/Src/stm32f0xx_hal_pcd.c ****   }
 2900              		.loc 1 1029 5 view .LVU663
1029:Drivers/STM32F0xx_HAL_Driver/Src/stm32f0xx_hal_pcd.c ****   }
 2901              		.loc 1 1029 5 view .LVU664
1029:Drivers/STM32F0xx_HAL_Driver/Src/stm32f0xx_hal_pcd.c ****   }
 2902              		.loc 1 1029 5 view .LVU665
ARM GAS  /tmp/cclz3j42.s 			page 75


 2903 00b4 C022     		movs	r2, #192
 2904 00b6 9201     		lsls	r2, r2, #6
 2905 00b8 5140     		eors	r1, r2
 2906              	.LVL224:
1029:Drivers/STM32F0xx_HAL_Driver/Src/stm32f0xx_hal_pcd.c ****   }
 2907              		.loc 1 1029 5 view .LVU666
 2908 00ba 064A     		ldr	r2, .L136+12
 2909 00bc 0A43     		orrs	r2, r1
 2910 00be 1A80     		strh	r2, [r3]
 2911 00c0 D5E7     		b	.L132
 2912              	.LVL225:
 2913              	.L134:
1029:Drivers/STM32F0xx_HAL_Driver/Src/stm32f0xx_hal_pcd.c ****   }
 2914              		.loc 1 1029 5 is_stmt 0 view .LVU667
 2915              	.LBE33:
1019:Drivers/STM32F0xx_HAL_Driver/Src/stm32f0xx_hal_pcd.c ****   
 2916              		.loc 1 1019 3 view .LVU668
 2917 00c2 0220     		movs	r0, #2
 2918              	.LVL226:
1019:Drivers/STM32F0xx_HAL_Driver/Src/stm32f0xx_hal_pcd.c ****   
 2919              		.loc 1 1019 3 view .LVU669
 2920 00c4 D8E7     		b	.L129
 2921              	.L137:
 2922 00c6 C046     		.align	2
 2923              	.L136:
 2924 00c8 0F0F0000 		.word	3855
 2925 00cc C080FFFF 		.word	-32576
 2926 00d0 BF8FFFFF 		.word	-28737
 2927 00d4 8080FFFF 		.word	-32640
 2928 00d8 80C0FFFF 		.word	-16256
 2929 00dc 8FBFFFFF 		.word	-16497
 2930              		.cfi_endproc
 2931              	.LFE64:
 2933              		.section	.text.HAL_PCD_EP_Flush,"ax",%progbits
 2934              		.align	1
 2935              		.global	HAL_PCD_EP_Flush
 2936              		.syntax unified
 2937              		.code	16
 2938              		.thumb_func
 2939              		.fpu softvfp
 2941              	HAL_PCD_EP_Flush:
 2942              	.LVL227:
 2943              	.LFB65:
1035:Drivers/STM32F0xx_HAL_Driver/Src/stm32f0xx_hal_pcd.c **** 
1036:Drivers/STM32F0xx_HAL_Driver/Src/stm32f0xx_hal_pcd.c **** /**
1037:Drivers/STM32F0xx_HAL_Driver/Src/stm32f0xx_hal_pcd.c ****   * @brief  Flush an endpoint
1038:Drivers/STM32F0xx_HAL_Driver/Src/stm32f0xx_hal_pcd.c ****   * @param  hpcd PCD handle
1039:Drivers/STM32F0xx_HAL_Driver/Src/stm32f0xx_hal_pcd.c ****   * @param  ep_addr endpoint address
1040:Drivers/STM32F0xx_HAL_Driver/Src/stm32f0xx_hal_pcd.c ****   * @retval HAL status
1041:Drivers/STM32F0xx_HAL_Driver/Src/stm32f0xx_hal_pcd.c ****   */
1042:Drivers/STM32F0xx_HAL_Driver/Src/stm32f0xx_hal_pcd.c **** HAL_StatusTypeDef HAL_PCD_EP_Flush(PCD_HandleTypeDef *hpcd, uint8_t ep_addr)
1043:Drivers/STM32F0xx_HAL_Driver/Src/stm32f0xx_hal_pcd.c **** { 
 2944              		.loc 1 1043 1 is_stmt 1 view -0
 2945              		.cfi_startproc
 2946              		@ args = 0, pretend = 0, frame = 0
 2947              		@ frame_needed = 0, uses_anonymous_args = 0
 2948              		@ link register save eliminated.
ARM GAS  /tmp/cclz3j42.s 			page 76


1044:Drivers/STM32F0xx_HAL_Driver/Src/stm32f0xx_hal_pcd.c ****   return HAL_OK;
 2949              		.loc 1 1044 3 view .LVU671
1045:Drivers/STM32F0xx_HAL_Driver/Src/stm32f0xx_hal_pcd.c **** }
 2950              		.loc 1 1045 1 is_stmt 0 view .LVU672
 2951 0000 0020     		movs	r0, #0
 2952              	.LVL228:
 2953              		.loc 1 1045 1 view .LVU673
 2954              		@ sp needed
 2955 0002 7047     		bx	lr
 2956              		.cfi_endproc
 2957              	.LFE65:
 2959              		.section	.text.HAL_PCD_ActivateRemoteWakeup,"ax",%progbits
 2960              		.align	1
 2961              		.global	HAL_PCD_ActivateRemoteWakeup
 2962              		.syntax unified
 2963              		.code	16
 2964              		.thumb_func
 2965              		.fpu softvfp
 2967              	HAL_PCD_ActivateRemoteWakeup:
 2968              	.LVL229:
 2969              	.LFB66:
1046:Drivers/STM32F0xx_HAL_Driver/Src/stm32f0xx_hal_pcd.c **** 
1047:Drivers/STM32F0xx_HAL_Driver/Src/stm32f0xx_hal_pcd.c **** /**
1048:Drivers/STM32F0xx_HAL_Driver/Src/stm32f0xx_hal_pcd.c ****   * @brief  HAL_PCD_ActivateRemoteWakeup : active remote wakeup signalling
1049:Drivers/STM32F0xx_HAL_Driver/Src/stm32f0xx_hal_pcd.c **** * @param  hpcd PCD handle
1050:Drivers/STM32F0xx_HAL_Driver/Src/stm32f0xx_hal_pcd.c **** * @retval HAL status
1051:Drivers/STM32F0xx_HAL_Driver/Src/stm32f0xx_hal_pcd.c **** */
1052:Drivers/STM32F0xx_HAL_Driver/Src/stm32f0xx_hal_pcd.c **** HAL_StatusTypeDef HAL_PCD_ActivateRemoteWakeup(PCD_HandleTypeDef *hpcd)
1053:Drivers/STM32F0xx_HAL_Driver/Src/stm32f0xx_hal_pcd.c **** {
 2970              		.loc 1 1053 1 is_stmt 1 view -0
 2971              		.cfi_startproc
 2972              		@ args = 0, pretend = 0, frame = 0
 2973              		@ frame_needed = 0, uses_anonymous_args = 0
 2974              		@ link register save eliminated.
1054:Drivers/STM32F0xx_HAL_Driver/Src/stm32f0xx_hal_pcd.c ****   if (hpcd->Init.lpm_enable ==1)
 2975              		.loc 1 1054 3 view .LVU675
 2976              		.loc 1 1054 6 is_stmt 0 view .LVU676
 2977 0000 C369     		ldr	r3, [r0, #28]
 2978 0002 012B     		cmp	r3, #1
 2979 0004 07D0     		beq	.L142
1055:Drivers/STM32F0xx_HAL_Driver/Src/stm32f0xx_hal_pcd.c ****   {
1056:Drivers/STM32F0xx_HAL_Driver/Src/stm32f0xx_hal_pcd.c ****     /* Apply L1 Resume */
1057:Drivers/STM32F0xx_HAL_Driver/Src/stm32f0xx_hal_pcd.c ****     hpcd->Instance->CNTR |= USB_CNTR_L1RESUME;
1058:Drivers/STM32F0xx_HAL_Driver/Src/stm32f0xx_hal_pcd.c ****   }
1059:Drivers/STM32F0xx_HAL_Driver/Src/stm32f0xx_hal_pcd.c ****   else
1060:Drivers/STM32F0xx_HAL_Driver/Src/stm32f0xx_hal_pcd.c ****   {
1061:Drivers/STM32F0xx_HAL_Driver/Src/stm32f0xx_hal_pcd.c ****     /* Apply L2 Resume */
1062:Drivers/STM32F0xx_HAL_Driver/Src/stm32f0xx_hal_pcd.c ****     hpcd->Instance->CNTR |= USB_CNTR_RESUME;
 2980              		.loc 1 1062 5 is_stmt 1 view .LVU677
 2981              		.loc 1 1062 9 is_stmt 0 view .LVU678
 2982 0006 0168     		ldr	r1, [r0]
 2983              		.loc 1 1062 26 view .LVU679
 2984 0008 4022     		movs	r2, #64
 2985 000a 8B5A     		ldrh	r3, [r1, r2]
 2986 000c 1020     		movs	r0, #16
 2987              	.LVL230:
 2988              		.loc 1 1062 26 view .LVU680
ARM GAS  /tmp/cclz3j42.s 			page 77


 2989 000e 0343     		orrs	r3, r0
 2990 0010 8B52     		strh	r3, [r1, r2]
 2991              	.L141:
1063:Drivers/STM32F0xx_HAL_Driver/Src/stm32f0xx_hal_pcd.c ****   }
1064:Drivers/STM32F0xx_HAL_Driver/Src/stm32f0xx_hal_pcd.c ****   
1065:Drivers/STM32F0xx_HAL_Driver/Src/stm32f0xx_hal_pcd.c ****   return (HAL_OK);
 2992              		.loc 1 1065 3 is_stmt 1 view .LVU681
1066:Drivers/STM32F0xx_HAL_Driver/Src/stm32f0xx_hal_pcd.c **** }
 2993              		.loc 1 1066 1 is_stmt 0 view .LVU682
 2994 0012 0020     		movs	r0, #0
 2995              		@ sp needed
 2996 0014 7047     		bx	lr
 2997              	.LVL231:
 2998              	.L142:
1057:Drivers/STM32F0xx_HAL_Driver/Src/stm32f0xx_hal_pcd.c ****   }
 2999              		.loc 1 1057 5 is_stmt 1 view .LVU683
1057:Drivers/STM32F0xx_HAL_Driver/Src/stm32f0xx_hal_pcd.c ****   }
 3000              		.loc 1 1057 9 is_stmt 0 view .LVU684
 3001 0016 0168     		ldr	r1, [r0]
1057:Drivers/STM32F0xx_HAL_Driver/Src/stm32f0xx_hal_pcd.c ****   }
 3002              		.loc 1 1057 26 view .LVU685
 3003 0018 4022     		movs	r2, #64
 3004 001a 8B5A     		ldrh	r3, [r1, r2]
 3005 001c 2020     		movs	r0, #32
 3006              	.LVL232:
1057:Drivers/STM32F0xx_HAL_Driver/Src/stm32f0xx_hal_pcd.c ****   }
 3007              		.loc 1 1057 26 view .LVU686
 3008 001e 0343     		orrs	r3, r0
 3009 0020 8B52     		strh	r3, [r1, r2]
 3010 0022 F6E7     		b	.L141
 3011              		.cfi_endproc
 3012              	.LFE66:
 3014              		.section	.text.HAL_PCD_DeActivateRemoteWakeup,"ax",%progbits
 3015              		.align	1
 3016              		.global	HAL_PCD_DeActivateRemoteWakeup
 3017              		.syntax unified
 3018              		.code	16
 3019              		.thumb_func
 3020              		.fpu softvfp
 3022              	HAL_PCD_DeActivateRemoteWakeup:
 3023              	.LVL233:
 3024              	.LFB67:
1067:Drivers/STM32F0xx_HAL_Driver/Src/stm32f0xx_hal_pcd.c **** 
1068:Drivers/STM32F0xx_HAL_Driver/Src/stm32f0xx_hal_pcd.c **** /**
1069:Drivers/STM32F0xx_HAL_Driver/Src/stm32f0xx_hal_pcd.c **** * @brief  HAL_PCD_DeActivateRemoteWakeup : de-active remote wakeup signalling
1070:Drivers/STM32F0xx_HAL_Driver/Src/stm32f0xx_hal_pcd.c **** * @param  hpcd PCD handle
1071:Drivers/STM32F0xx_HAL_Driver/Src/stm32f0xx_hal_pcd.c **** * @retval HAL status
1072:Drivers/STM32F0xx_HAL_Driver/Src/stm32f0xx_hal_pcd.c **** */
1073:Drivers/STM32F0xx_HAL_Driver/Src/stm32f0xx_hal_pcd.c **** HAL_StatusTypeDef HAL_PCD_DeActivateRemoteWakeup(PCD_HandleTypeDef *hpcd)
1074:Drivers/STM32F0xx_HAL_Driver/Src/stm32f0xx_hal_pcd.c **** {
 3025              		.loc 1 1074 1 is_stmt 1 view -0
 3026              		.cfi_startproc
 3027              		@ args = 0, pretend = 0, frame = 0
 3028              		@ frame_needed = 0, uses_anonymous_args = 0
 3029              		@ link register save eliminated.
1075:Drivers/STM32F0xx_HAL_Driver/Src/stm32f0xx_hal_pcd.c ****   if (hpcd->Init.lpm_enable ==1)
 3030              		.loc 1 1075 3 view .LVU688
ARM GAS  /tmp/cclz3j42.s 			page 78


 3031              		.loc 1 1075 6 is_stmt 0 view .LVU689
 3032 0000 C369     		ldr	r3, [r0, #28]
 3033 0002 012B     		cmp	r3, #1
 3034 0004 07D0     		beq	.L146
1076:Drivers/STM32F0xx_HAL_Driver/Src/stm32f0xx_hal_pcd.c ****   {
1077:Drivers/STM32F0xx_HAL_Driver/Src/stm32f0xx_hal_pcd.c ****     /* Release L1 Resume */
1078:Drivers/STM32F0xx_HAL_Driver/Src/stm32f0xx_hal_pcd.c ****     hpcd->Instance->CNTR &= ((uint16_t)(~ USB_CNTR_L1RESUME));
1079:Drivers/STM32F0xx_HAL_Driver/Src/stm32f0xx_hal_pcd.c ****   }
1080:Drivers/STM32F0xx_HAL_Driver/Src/stm32f0xx_hal_pcd.c ****   else
1081:Drivers/STM32F0xx_HAL_Driver/Src/stm32f0xx_hal_pcd.c ****   {
1082:Drivers/STM32F0xx_HAL_Driver/Src/stm32f0xx_hal_pcd.c ****     /* Release L2 Resume */
1083:Drivers/STM32F0xx_HAL_Driver/Src/stm32f0xx_hal_pcd.c ****     hpcd->Instance->CNTR &= ((uint16_t)(~ USB_CNTR_RESUME)) ;
 3035              		.loc 1 1083 5 is_stmt 1 view .LVU690
 3036              		.loc 1 1083 9 is_stmt 0 view .LVU691
 3037 0006 0168     		ldr	r1, [r0]
 3038              		.loc 1 1083 26 view .LVU692
 3039 0008 4022     		movs	r2, #64
 3040 000a 8B5A     		ldrh	r3, [r1, r2]
 3041 000c 1020     		movs	r0, #16
 3042              	.LVL234:
 3043              		.loc 1 1083 26 view .LVU693
 3044 000e 8343     		bics	r3, r0
 3045 0010 8B52     		strh	r3, [r1, r2]
 3046              	.L145:
1084:Drivers/STM32F0xx_HAL_Driver/Src/stm32f0xx_hal_pcd.c ****   }
1085:Drivers/STM32F0xx_HAL_Driver/Src/stm32f0xx_hal_pcd.c ****   
1086:Drivers/STM32F0xx_HAL_Driver/Src/stm32f0xx_hal_pcd.c ****   return (HAL_OK);
 3047              		.loc 1 1086 3 is_stmt 1 view .LVU694
1087:Drivers/STM32F0xx_HAL_Driver/Src/stm32f0xx_hal_pcd.c **** }
 3048              		.loc 1 1087 1 is_stmt 0 view .LVU695
 3049 0012 0020     		movs	r0, #0
 3050              		@ sp needed
 3051 0014 7047     		bx	lr
 3052              	.LVL235:
 3053              	.L146:
1078:Drivers/STM32F0xx_HAL_Driver/Src/stm32f0xx_hal_pcd.c ****   }
 3054              		.loc 1 1078 5 is_stmt 1 view .LVU696
1078:Drivers/STM32F0xx_HAL_Driver/Src/stm32f0xx_hal_pcd.c ****   }
 3055              		.loc 1 1078 9 is_stmt 0 view .LVU697
 3056 0016 0168     		ldr	r1, [r0]
1078:Drivers/STM32F0xx_HAL_Driver/Src/stm32f0xx_hal_pcd.c ****   }
 3057              		.loc 1 1078 26 view .LVU698
 3058 0018 4022     		movs	r2, #64
 3059 001a 8B5A     		ldrh	r3, [r1, r2]
 3060 001c 2020     		movs	r0, #32
 3061              	.LVL236:
1078:Drivers/STM32F0xx_HAL_Driver/Src/stm32f0xx_hal_pcd.c ****   }
 3062              		.loc 1 1078 26 view .LVU699
 3063 001e 8343     		bics	r3, r0
 3064 0020 8B52     		strh	r3, [r1, r2]
 3065 0022 F6E7     		b	.L145
 3066              		.cfi_endproc
 3067              	.LFE67:
 3069              		.section	.text.HAL_PCD_GetState,"ax",%progbits
 3070              		.align	1
 3071              		.global	HAL_PCD_GetState
 3072              		.syntax unified
ARM GAS  /tmp/cclz3j42.s 			page 79


 3073              		.code	16
 3074              		.thumb_func
 3075              		.fpu softvfp
 3077              	HAL_PCD_GetState:
 3078              	.LVL237:
 3079              	.LFB68:
1088:Drivers/STM32F0xx_HAL_Driver/Src/stm32f0xx_hal_pcd.c **** /**
1089:Drivers/STM32F0xx_HAL_Driver/Src/stm32f0xx_hal_pcd.c ****   * @}
1090:Drivers/STM32F0xx_HAL_Driver/Src/stm32f0xx_hal_pcd.c ****   */
1091:Drivers/STM32F0xx_HAL_Driver/Src/stm32f0xx_hal_pcd.c **** 
1092:Drivers/STM32F0xx_HAL_Driver/Src/stm32f0xx_hal_pcd.c **** /** @defgroup PCD_Exported_Functions_Group4 Peripheral State functions 
1093:Drivers/STM32F0xx_HAL_Driver/Src/stm32f0xx_hal_pcd.c ****  *  @brief   Peripheral State functions 
1094:Drivers/STM32F0xx_HAL_Driver/Src/stm32f0xx_hal_pcd.c ****  *
1095:Drivers/STM32F0xx_HAL_Driver/Src/stm32f0xx_hal_pcd.c **** @verbatim   
1096:Drivers/STM32F0xx_HAL_Driver/Src/stm32f0xx_hal_pcd.c ****  ===============================================================================
1097:Drivers/STM32F0xx_HAL_Driver/Src/stm32f0xx_hal_pcd.c ****                       ##### Peripheral State functions #####
