ARM GAS  /tmp/cc0XYibz.s 			page 1


   1              		.cpu cortex-m0
   2              		.eabi_attribute 20, 1
   3              		.eabi_attribute 21, 1
   4              		.eabi_attribute 23, 3
   5              		.eabi_attribute 24, 1
   6              		.eabi_attribute 25, 1
   7              		.eabi_attribute 26, 1
   8              		.eabi_attribute 30, 1
   9              		.eabi_attribute 34, 0
  10              		.eabi_attribute 18, 4
  11              		.file	"usbd_conf.c"
  12              		.text
  13              	.Ltext0:
  14              		.cfi_sections	.debug_frame
  15              		.section	.text.SystemClockConfig_Resume,"ax",%progbits
  16              		.align	1
  17              		.arch armv6s-m
  18              		.syntax unified
  19              		.code	16
  20              		.thumb_func
  21              		.fpu softvfp
  23              	SystemClockConfig_Resume:
  24              	.LFB67:
  25              		.file 1 "Src/usbd_conf.c"
   1:Src/usbd_conf.c **** /**
   2:Src/usbd_conf.c ****   ******************************************************************************
   3:Src/usbd_conf.c ****   * @file           : usbd_conf.c
   4:Src/usbd_conf.c ****   * @version        : v2.0_Cube
   5:Src/usbd_conf.c ****   * @brief          : This file implements the board support package for the USB device library
   6:Src/usbd_conf.c ****   ******************************************************************************
   7:Src/usbd_conf.c ****   * This notice applies to any and all portions of this file
   8:Src/usbd_conf.c ****   * that are not between comment pairs USER CODE BEGIN and
   9:Src/usbd_conf.c ****   * USER CODE END. Other portions of this file, whether 
  10:Src/usbd_conf.c ****   * inserted by the user or by software development tools
  11:Src/usbd_conf.c ****   * are owned by their respective copyright owners.
  12:Src/usbd_conf.c ****   *
  13:Src/usbd_conf.c ****   * Copyright (c) 2019 STMicroelectronics International N.V. 
  14:Src/usbd_conf.c ****   * All rights reserved.
  15:Src/usbd_conf.c ****   *
  16:Src/usbd_conf.c ****   * Redistribution and use in source and binary forms, with or without 
  17:Src/usbd_conf.c ****   * modification, are permitted, provided that the following conditions are met:
  18:Src/usbd_conf.c ****   *
  19:Src/usbd_conf.c ****   * 1. Redistribution of source code must retain the above copyright notice, 
  20:Src/usbd_conf.c ****   *    this list of conditions and the following disclaimer.
  21:Src/usbd_conf.c ****   * 2. Redistributions in binary form must reproduce the above copyright notice,
  22:Src/usbd_conf.c ****   *    this list of conditions and the following disclaimer in the documentation
  23:Src/usbd_conf.c ****   *    and/or other materials provided with the distribution.
  24:Src/usbd_conf.c ****   * 3. Neither the name of STMicroelectronics nor the names of other 
  25:Src/usbd_conf.c ****   *    contributors to this software may be used to endorse or promote products 
  26:Src/usbd_conf.c ****   *    derived from this software without specific written permission.
  27:Src/usbd_conf.c ****   * 4. This software, including modifications and/or derivative works of this 
  28:Src/usbd_conf.c ****   *    software, must execute solely and exclusively on microcontroller or
  29:Src/usbd_conf.c ****   *    microprocessor devices manufactured by or for STMicroelectronics.
  30:Src/usbd_conf.c ****   * 5. Redistribution and use of this software other than as permitted under 
  31:Src/usbd_conf.c ****   *    this license is void and will automatically terminate your rights under 
  32:Src/usbd_conf.c ****   *    this license. 
  33:Src/usbd_conf.c ****   *
ARM GAS  /tmp/cc0XYibz.s 			page 2


  34:Src/usbd_conf.c ****   * THIS SOFTWARE IS PROVIDED BY STMICROELECTRONICS AND CONTRIBUTORS "AS IS" 
  35:Src/usbd_conf.c ****   * AND ANY EXPRESS, IMPLIED OR STATUTORY WARRANTIES, INCLUDING, BUT NOT 
  36:Src/usbd_conf.c ****   * LIMITED TO, THE IMPLIED WARRANTIES OF MERCHANTABILITY, FITNESS FOR A 
  37:Src/usbd_conf.c ****   * PARTICULAR PURPOSE AND NON-INFRINGEMENT OF THIRD PARTY INTELLECTUAL PROPERTY
  38:Src/usbd_conf.c ****   * RIGHTS ARE DISCLAIMED TO THE FULLEST EXTENT PERMITTED BY LAW. IN NO EVENT 
  39:Src/usbd_conf.c ****   * SHALL STMICROELECTRONICS OR CONTRIBUTORS BE LIABLE FOR ANY DIRECT, INDIRECT,
  40:Src/usbd_conf.c ****   * INCIDENTAL, SPECIAL, EXEMPLARY, OR CONSEQUENTIAL DAMAGES (INCLUDING, BUT NOT
  41:Src/usbd_conf.c ****   * LIMITED TO, PROCUREMENT OF SUBSTITUTE GOODS OR SERVICES; LOSS OF USE, DATA, 
  42:Src/usbd_conf.c ****   * OR PROFITS; OR BUSINESS INTERRUPTION) HOWEVER CAUSED AND ON ANY THEORY OF 
  43:Src/usbd_conf.c ****   * LIABILITY, WHETHER IN CONTRACT, STRICT LIABILITY, OR TORT (INCLUDING 
  44:Src/usbd_conf.c ****   * NEGLIGENCE OR OTHERWISE) ARISING IN ANY WAY OUT OF THE USE OF THIS SOFTWARE,
  45:Src/usbd_conf.c ****   * EVEN IF ADVISED OF THE POSSIBILITY OF SUCH DAMAGE.
  46:Src/usbd_conf.c ****   *
  47:Src/usbd_conf.c ****   ******************************************************************************
  48:Src/usbd_conf.c ****   */
  49:Src/usbd_conf.c **** 
  50:Src/usbd_conf.c **** /* Includes ------------------------------------------------------------------*/
  51:Src/usbd_conf.c **** #include "stm32f0xx.h"
  52:Src/usbd_conf.c **** #include "stm32f0xx_hal.h"
  53:Src/usbd_conf.c **** #include "usbd_def.h"
  54:Src/usbd_conf.c **** #include "usbd_core.h"
  55:Src/usbd_conf.c **** #include "usbd_cdc.h"
  56:Src/usbd_conf.c **** 
  57:Src/usbd_conf.c **** /* USER CODE BEGIN Includes */
  58:Src/usbd_conf.c **** 
  59:Src/usbd_conf.c **** /* USER CODE END Includes */
  60:Src/usbd_conf.c **** 
  61:Src/usbd_conf.c **** /* Private typedef -----------------------------------------------------------*/
  62:Src/usbd_conf.c **** /* Private define ------------------------------------------------------------*/
  63:Src/usbd_conf.c **** /* Private macro -------------------------------------------------------------*/
  64:Src/usbd_conf.c **** 
  65:Src/usbd_conf.c **** /* USER CODE BEGIN PV */
  66:Src/usbd_conf.c **** /* Private variables ---------------------------------------------------------*/
  67:Src/usbd_conf.c **** 
  68:Src/usbd_conf.c **** /* USER CODE END PV */
  69:Src/usbd_conf.c **** 
  70:Src/usbd_conf.c ****                 PCD_HandleTypeDef hpcd_USB_FS;
  71:Src/usbd_conf.c **** void Error_Handler(void);
  72:Src/usbd_conf.c **** 
  73:Src/usbd_conf.c **** /* USER CODE BEGIN 0 */
  74:Src/usbd_conf.c **** 
  75:Src/usbd_conf.c **** /* USER CODE END 0 */
  76:Src/usbd_conf.c **** 
  77:Src/usbd_conf.c **** /* USER CODE BEGIN PFP */
  78:Src/usbd_conf.c **** /* Private function prototypes -----------------------------------------------*/
  79:Src/usbd_conf.c **** 
  80:Src/usbd_conf.c **** /* USER CODE END PFP */
  81:Src/usbd_conf.c **** 
  82:Src/usbd_conf.c **** /* Private functions ---------------------------------------------------------*/
  83:Src/usbd_conf.c **** 
  84:Src/usbd_conf.c **** /* USER CODE BEGIN 1 */
  85:Src/usbd_conf.c **** static void SystemClockConfig_Resume(void);
  86:Src/usbd_conf.c **** /* USER CODE END 1 */
  87:Src/usbd_conf.c **** void HAL_PCDEx_SetConnectionState(PCD_HandleTypeDef *hpcd, uint8_t state);
  88:Src/usbd_conf.c **** extern void SystemClock_Config(void);
  89:Src/usbd_conf.c **** 
  90:Src/usbd_conf.c **** /*******************************************************************************
ARM GAS  /tmp/cc0XYibz.s 			page 3


  91:Src/usbd_conf.c ****                        LL Driver Callbacks (PCD -> USB Device Library)
  92:Src/usbd_conf.c **** *******************************************************************************/
  93:Src/usbd_conf.c **** /* MSP Init */
  94:Src/usbd_conf.c **** 
  95:Src/usbd_conf.c **** void HAL_PCD_MspInit(PCD_HandleTypeDef* pcdHandle)
  96:Src/usbd_conf.c **** {
  97:Src/usbd_conf.c ****   if(pcdHandle->Instance==USB)
  98:Src/usbd_conf.c ****   {
  99:Src/usbd_conf.c ****   /* USER CODE BEGIN USB_MspInit 0 */
 100:Src/usbd_conf.c **** 
 101:Src/usbd_conf.c ****   /* USER CODE END USB_MspInit 0 */
 102:Src/usbd_conf.c ****     /* Peripheral clock enable */
 103:Src/usbd_conf.c ****     __HAL_RCC_USB_CLK_ENABLE();
 104:Src/usbd_conf.c **** 
 105:Src/usbd_conf.c ****     /* Peripheral interrupt init */
 106:Src/usbd_conf.c ****     HAL_NVIC_SetPriority(USB_IRQn, 0, 0);
 107:Src/usbd_conf.c ****     HAL_NVIC_EnableIRQ(USB_IRQn);
 108:Src/usbd_conf.c ****   /* USER CODE BEGIN USB_MspInit 1 */
 109:Src/usbd_conf.c **** 
 110:Src/usbd_conf.c ****   /* USER CODE END USB_MspInit 1 */
 111:Src/usbd_conf.c ****   }
 112:Src/usbd_conf.c **** }
 113:Src/usbd_conf.c **** 
 114:Src/usbd_conf.c **** void HAL_PCD_MspDeInit(PCD_HandleTypeDef* pcdHandle)
 115:Src/usbd_conf.c **** {
 116:Src/usbd_conf.c ****   if(pcdHandle->Instance==USB)
 117:Src/usbd_conf.c ****   {
 118:Src/usbd_conf.c ****   /* USER CODE BEGIN USB_MspDeInit 0 */
 119:Src/usbd_conf.c **** 
 120:Src/usbd_conf.c ****   /* USER CODE END USB_MspDeInit 0 */
 121:Src/usbd_conf.c ****     /* Peripheral clock disable */
 122:Src/usbd_conf.c ****     __HAL_RCC_USB_CLK_DISABLE();
 123:Src/usbd_conf.c **** 
 124:Src/usbd_conf.c ****     /* Peripheral interrupt Deinit*/
 125:Src/usbd_conf.c ****     HAL_NVIC_DisableIRQ(USB_IRQn);
 126:Src/usbd_conf.c **** 
 127:Src/usbd_conf.c ****   /* USER CODE BEGIN USB_MspDeInit 1 */
 128:Src/usbd_conf.c **** 
 129:Src/usbd_conf.c ****   /* USER CODE END USB_MspDeInit 1 */
 130:Src/usbd_conf.c ****   }
 131:Src/usbd_conf.c **** }
 132:Src/usbd_conf.c **** 
 133:Src/usbd_conf.c **** /**
 134:Src/usbd_conf.c ****   * @brief  Setup stage callback
 135:Src/usbd_conf.c ****   * @param  hpcd: PCD handle
 136:Src/usbd_conf.c ****   * @retval None
 137:Src/usbd_conf.c ****   */
 138:Src/usbd_conf.c **** void HAL_PCD_SetupStageCallback(PCD_HandleTypeDef *hpcd)
 139:Src/usbd_conf.c **** {
 140:Src/usbd_conf.c ****   USBD_LL_SetupStage((USBD_HandleTypeDef*)hpcd->pData, (uint8_t *)hpcd->Setup);
 141:Src/usbd_conf.c **** }
 142:Src/usbd_conf.c **** 
 143:Src/usbd_conf.c **** /**
 144:Src/usbd_conf.c ****   * @brief  Data Out stage callback.
 145:Src/usbd_conf.c ****   * @param  hpcd: PCD handle
 146:Src/usbd_conf.c ****   * @param  epnum: Endpoint number
 147:Src/usbd_conf.c ****   * @retval None
ARM GAS  /tmp/cc0XYibz.s 			page 4


 148:Src/usbd_conf.c ****   */
 149:Src/usbd_conf.c **** void HAL_PCD_DataOutStageCallback(PCD_HandleTypeDef *hpcd, uint8_t epnum)
 150:Src/usbd_conf.c **** {
 151:Src/usbd_conf.c ****   USBD_LL_DataOutStage((USBD_HandleTypeDef*)hpcd->pData, epnum, hpcd->OUT_ep[epnum].xfer_buff);
 152:Src/usbd_conf.c **** }
 153:Src/usbd_conf.c **** 
 154:Src/usbd_conf.c **** /**
 155:Src/usbd_conf.c ****   * @brief  Data In stage callback.
 156:Src/usbd_conf.c ****   * @param  hpcd: PCD handle
 157:Src/usbd_conf.c ****   * @param  epnum: Endpoint number
 158:Src/usbd_conf.c ****   * @retval None
 159:Src/usbd_conf.c ****   */
 160:Src/usbd_conf.c **** void HAL_PCD_DataInStageCallback(PCD_HandleTypeDef *hpcd, uint8_t epnum)
 161:Src/usbd_conf.c **** {
 162:Src/usbd_conf.c ****   USBD_LL_DataInStage((USBD_HandleTypeDef*)hpcd->pData, epnum, hpcd->IN_ep[epnum].xfer_buff);
 163:Src/usbd_conf.c **** }
 164:Src/usbd_conf.c **** 
 165:Src/usbd_conf.c **** /**
 166:Src/usbd_conf.c ****   * @brief  SOF callback.
 167:Src/usbd_conf.c ****   * @param  hpcd: PCD handle
 168:Src/usbd_conf.c ****   * @retval None
 169:Src/usbd_conf.c ****   */
 170:Src/usbd_conf.c **** void HAL_PCD_SOFCallback(PCD_HandleTypeDef *hpcd)
 171:Src/usbd_conf.c **** {
 172:Src/usbd_conf.c ****   USBD_LL_SOF((USBD_HandleTypeDef*)hpcd->pData);
 173:Src/usbd_conf.c **** }
 174:Src/usbd_conf.c **** 
 175:Src/usbd_conf.c **** /**
 176:Src/usbd_conf.c ****   * @brief  Reset callback.
 177:Src/usbd_conf.c ****   * @param  hpcd: PCD handle
 178:Src/usbd_conf.c ****   * @retval None
 179:Src/usbd_conf.c ****   */
 180:Src/usbd_conf.c **** void HAL_PCD_ResetCallback(PCD_HandleTypeDef *hpcd)
 181:Src/usbd_conf.c **** { 
 182:Src/usbd_conf.c ****   USBD_SpeedTypeDef speed = USBD_SPEED_FULL;
 183:Src/usbd_conf.c **** 
 184:Src/usbd_conf.c ****   /* Set USB current speed. */
 185:Src/usbd_conf.c ****   switch (hpcd->Init.speed)
 186:Src/usbd_conf.c ****   {
 187:Src/usbd_conf.c ****   case PCD_SPEED_FULL:
 188:Src/usbd_conf.c ****     speed = USBD_SPEED_FULL;
 189:Src/usbd_conf.c ****     break;
 190:Src/usbd_conf.c **** 	
 191:Src/usbd_conf.c ****   default:
 192:Src/usbd_conf.c ****     speed = USBD_SPEED_FULL;
 193:Src/usbd_conf.c ****     break;    
 194:Src/usbd_conf.c ****   }
 195:Src/usbd_conf.c ****   USBD_LL_SetSpeed((USBD_HandleTypeDef*)hpcd->pData, speed);
 196:Src/usbd_conf.c ****   
 197:Src/usbd_conf.c ****   /* Reset Device. */
 198:Src/usbd_conf.c ****   USBD_LL_Reset((USBD_HandleTypeDef*)hpcd->pData);
 199:Src/usbd_conf.c **** }
 200:Src/usbd_conf.c **** 
 201:Src/usbd_conf.c **** /**
 202:Src/usbd_conf.c ****   * @brief  Suspend callback.
 203:Src/usbd_conf.c ****   * When Low power mode is enabled the debug cannot be used (IAR, Keil doesn't support it)
 204:Src/usbd_conf.c ****   * @param  hpcd: PCD handle
ARM GAS  /tmp/cc0XYibz.s 			page 5


 205:Src/usbd_conf.c ****   * @retval None
 206:Src/usbd_conf.c ****   */
 207:Src/usbd_conf.c **** void HAL_PCD_SuspendCallback(PCD_HandleTypeDef *hpcd)
 208:Src/usbd_conf.c **** {
 209:Src/usbd_conf.c ****   /* Inform USB library that core enters in suspend Mode. */
 210:Src/usbd_conf.c ****   USBD_LL_Suspend((USBD_HandleTypeDef*)hpcd->pData);
 211:Src/usbd_conf.c ****   /* Enter in STOP mode. */
 212:Src/usbd_conf.c ****   /* USER CODE BEGIN 2 */
 213:Src/usbd_conf.c ****   if (hpcd->Init.low_power_enable)
 214:Src/usbd_conf.c ****   {
 215:Src/usbd_conf.c ****     /* Set SLEEPDEEP bit and SleepOnExit of Cortex System Control Register. */
 216:Src/usbd_conf.c ****     SCB->SCR |= (uint32_t)((uint32_t)(SCB_SCR_SLEEPDEEP_Msk | SCB_SCR_SLEEPONEXIT_Msk));
 217:Src/usbd_conf.c ****   }
 218:Src/usbd_conf.c ****   /* USER CODE END 2 */
 219:Src/usbd_conf.c **** }
 220:Src/usbd_conf.c **** 
 221:Src/usbd_conf.c **** /**
 222:Src/usbd_conf.c ****   * @brief  Resume callback.
 223:Src/usbd_conf.c ****   * When Low power mode is enabled the debug cannot be used (IAR, Keil doesn't support it)
 224:Src/usbd_conf.c ****   * @param  hpcd: PCD handle
 225:Src/usbd_conf.c ****   * @retval None
 226:Src/usbd_conf.c ****   */
 227:Src/usbd_conf.c **** void HAL_PCD_ResumeCallback(PCD_HandleTypeDef *hpcd)
 228:Src/usbd_conf.c **** {
 229:Src/usbd_conf.c ****   /* USER CODE BEGIN 3 */
 230:Src/usbd_conf.c ****   if (hpcd->Init.low_power_enable)
 231:Src/usbd_conf.c ****   {
 232:Src/usbd_conf.c ****     /* Reset SLEEPDEEP bit of Cortex System Control Register. */
 233:Src/usbd_conf.c ****     SCB->SCR &= (uint32_t)~((uint32_t)(SCB_SCR_SLEEPDEEP_Msk | SCB_SCR_SLEEPONEXIT_Msk));
 234:Src/usbd_conf.c ****     SystemClockConfig_Resume();
 235:Src/usbd_conf.c ****   }
 236:Src/usbd_conf.c ****   /* USER CODE END 3 */
 237:Src/usbd_conf.c ****   USBD_LL_Resume((USBD_HandleTypeDef*)hpcd->pData);
 238:Src/usbd_conf.c **** }
 239:Src/usbd_conf.c **** 
 240:Src/usbd_conf.c **** /**
 241:Src/usbd_conf.c ****   * @brief  ISOOUTIncomplete callback.
 242:Src/usbd_conf.c ****   * @param  hpcd: PCD handle
 243:Src/usbd_conf.c ****   * @param  epnum: Endpoint number
 244:Src/usbd_conf.c ****   * @retval None
 245:Src/usbd_conf.c ****   */
 246:Src/usbd_conf.c **** void HAL_PCD_ISOOUTIncompleteCallback(PCD_HandleTypeDef *hpcd, uint8_t epnum)
 247:Src/usbd_conf.c **** {
 248:Src/usbd_conf.c ****   USBD_LL_IsoOUTIncomplete((USBD_HandleTypeDef*)hpcd->pData, epnum);
 249:Src/usbd_conf.c **** }
 250:Src/usbd_conf.c **** 
 251:Src/usbd_conf.c **** /**
 252:Src/usbd_conf.c ****   * @brief  ISOINIncomplete callback.
 253:Src/usbd_conf.c ****   * @param  hpcd: PCD handle
 254:Src/usbd_conf.c ****   * @param  epnum: Endpoint number
 255:Src/usbd_conf.c ****   * @retval None
 256:Src/usbd_conf.c ****   */
 257:Src/usbd_conf.c **** void HAL_PCD_ISOINIncompleteCallback(PCD_HandleTypeDef *hpcd, uint8_t epnum)
 258:Src/usbd_conf.c **** {
 259:Src/usbd_conf.c ****   USBD_LL_IsoINIncomplete((USBD_HandleTypeDef*)hpcd->pData, epnum);
 260:Src/usbd_conf.c **** }
 261:Src/usbd_conf.c **** 
ARM GAS  /tmp/cc0XYibz.s 			page 6


 262:Src/usbd_conf.c **** /**
 263:Src/usbd_conf.c ****   * @brief  Connect callback.
 264:Src/usbd_conf.c ****   * @param  hpcd: PCD handle
 265:Src/usbd_conf.c ****   * @retval None
 266:Src/usbd_conf.c ****   */
 267:Src/usbd_conf.c **** void HAL_PCD_ConnectCallback(PCD_HandleTypeDef *hpcd)
 268:Src/usbd_conf.c **** {
 269:Src/usbd_conf.c ****   USBD_LL_DevConnected((USBD_HandleTypeDef*)hpcd->pData);
 270:Src/usbd_conf.c **** }
 271:Src/usbd_conf.c **** 
 272:Src/usbd_conf.c **** /**
 273:Src/usbd_conf.c ****   * @brief  Disconnect callback.
 274:Src/usbd_conf.c ****   * @param  hpcd: PCD handle
 275:Src/usbd_conf.c ****   * @retval None
 276:Src/usbd_conf.c ****   */
 277:Src/usbd_conf.c **** void HAL_PCD_DisconnectCallback(PCD_HandleTypeDef *hpcd)
 278:Src/usbd_conf.c **** {
 279:Src/usbd_conf.c ****   USBD_LL_DevDisconnected((USBD_HandleTypeDef*)hpcd->pData);
 280:Src/usbd_conf.c **** }
 281:Src/usbd_conf.c **** 
 282:Src/usbd_conf.c **** /*******************************************************************************
 283:Src/usbd_conf.c ****                        LL Driver Interface (USB Device Library --> PCD)
 284:Src/usbd_conf.c **** *******************************************************************************/
 285:Src/usbd_conf.c **** 
 286:Src/usbd_conf.c **** /**
 287:Src/usbd_conf.c ****   * @brief  Initializes the low level portion of the device driver.
 288:Src/usbd_conf.c ****   * @param  pdev: Device handle
 289:Src/usbd_conf.c ****   * @retval USBD status
 290:Src/usbd_conf.c ****   */
 291:Src/usbd_conf.c **** USBD_StatusTypeDef USBD_LL_Init(USBD_HandleTypeDef *pdev)
 292:Src/usbd_conf.c **** {
 293:Src/usbd_conf.c ****   /* Init USB Ip. */
 294:Src/usbd_conf.c ****   /* Link the driver to the stack. */
 295:Src/usbd_conf.c ****   hpcd_USB_FS.pData = pdev;
 296:Src/usbd_conf.c ****   pdev->pData = &hpcd_USB_FS;
 297:Src/usbd_conf.c **** 
 298:Src/usbd_conf.c ****   hpcd_USB_FS.Instance = USB;
 299:Src/usbd_conf.c ****   hpcd_USB_FS.Init.dev_endpoints = 8;
 300:Src/usbd_conf.c ****   hpcd_USB_FS.Init.speed = PCD_SPEED_FULL;
 301:Src/usbd_conf.c ****   hpcd_USB_FS.Init.ep0_mps = DEP0CTL_MPS_64;
 302:Src/usbd_conf.c ****   hpcd_USB_FS.Init.phy_itface = PCD_PHY_EMBEDDED;
 303:Src/usbd_conf.c ****   hpcd_USB_FS.Init.low_power_enable = DISABLE;
 304:Src/usbd_conf.c ****   hpcd_USB_FS.Init.lpm_enable = DISABLE;
 305:Src/usbd_conf.c ****   hpcd_USB_FS.Init.battery_charging_enable = DISABLE;
 306:Src/usbd_conf.c ****   if (HAL_PCD_Init(&hpcd_USB_FS) != HAL_OK)
 307:Src/usbd_conf.c ****   {
 308:Src/usbd_conf.c ****     Error_Handler( );
 309:Src/usbd_conf.c ****   }
 310:Src/usbd_conf.c **** 
 311:Src/usbd_conf.c ****   HAL_PCDEx_PMAConfig((PCD_HandleTypeDef*)pdev->pData , 0x00 , PCD_SNG_BUF, 0x18);
 312:Src/usbd_conf.c ****   HAL_PCDEx_PMAConfig((PCD_HandleTypeDef*)pdev->pData , 0x80 , PCD_SNG_BUF, 0x58);
 313:Src/usbd_conf.c ****   HAL_PCDEx_PMAConfig((PCD_HandleTypeDef*)pdev->pData , 0x81 , PCD_SNG_BUF, 0xC0);
 314:Src/usbd_conf.c ****   HAL_PCDEx_PMAConfig((PCD_HandleTypeDef*)pdev->pData , 0x01 , PCD_SNG_BUF, 0x110);
 315:Src/usbd_conf.c ****   HAL_PCDEx_PMAConfig((PCD_HandleTypeDef*)pdev->pData , 0x82 , PCD_SNG_BUF, 0x100);
 316:Src/usbd_conf.c ****   return USBD_OK;
 317:Src/usbd_conf.c **** }
 318:Src/usbd_conf.c **** 
ARM GAS  /tmp/cc0XYibz.s 			page 7


 319:Src/usbd_conf.c **** /**
 320:Src/usbd_conf.c ****   * @brief  De-Initializes the low level portion of the device driver.
 321:Src/usbd_conf.c ****   * @param  pdev: Device handle
 322:Src/usbd_conf.c ****   * @retval USBD status
 323:Src/usbd_conf.c ****   */
 324:Src/usbd_conf.c **** USBD_StatusTypeDef USBD_LL_DeInit(USBD_HandleTypeDef *pdev)
 325:Src/usbd_conf.c **** {
 326:Src/usbd_conf.c ****   HAL_StatusTypeDef hal_status = HAL_OK;
 327:Src/usbd_conf.c ****   USBD_StatusTypeDef usb_status = USBD_OK;
 328:Src/usbd_conf.c **** 
 329:Src/usbd_conf.c ****   hal_status = HAL_PCD_DeInit(pdev->pData);
 330:Src/usbd_conf.c **** 
 331:Src/usbd_conf.c ****   switch (hal_status) {
 332:Src/usbd_conf.c ****     case HAL_OK :
 333:Src/usbd_conf.c ****       usb_status = USBD_OK;
 334:Src/usbd_conf.c ****     break;
 335:Src/usbd_conf.c ****     case HAL_ERROR :
 336:Src/usbd_conf.c ****       usb_status = USBD_FAIL;
 337:Src/usbd_conf.c ****     break;
 338:Src/usbd_conf.c ****     case HAL_BUSY :
 339:Src/usbd_conf.c ****       usb_status = USBD_BUSY;
 340:Src/usbd_conf.c ****     break;
 341:Src/usbd_conf.c ****     case HAL_TIMEOUT :
 342:Src/usbd_conf.c ****       usb_status = USBD_FAIL;
 343:Src/usbd_conf.c ****     break;
 344:Src/usbd_conf.c ****     default :
 345:Src/usbd_conf.c ****       usb_status = USBD_FAIL;
 346:Src/usbd_conf.c ****     break;
 347:Src/usbd_conf.c ****   }
 348:Src/usbd_conf.c ****   return usb_status; 
 349:Src/usbd_conf.c **** }
 350:Src/usbd_conf.c **** 
 351:Src/usbd_conf.c **** /**
 352:Src/usbd_conf.c ****   * @brief  Starts the low level portion of the device driver.
 353:Src/usbd_conf.c ****   * @param  pdev: Device handle
 354:Src/usbd_conf.c ****   * @retval USBD status
 355:Src/usbd_conf.c ****   */
 356:Src/usbd_conf.c **** USBD_StatusTypeDef USBD_LL_Start(USBD_HandleTypeDef *pdev)
 357:Src/usbd_conf.c **** {
 358:Src/usbd_conf.c ****   HAL_StatusTypeDef hal_status = HAL_OK;
 359:Src/usbd_conf.c ****   USBD_StatusTypeDef usb_status = USBD_OK;
 360:Src/usbd_conf.c ****  
 361:Src/usbd_conf.c ****   hal_status = HAL_PCD_Start(pdev->pData);
 362:Src/usbd_conf.c ****      
 363:Src/usbd_conf.c ****   switch (hal_status) {
 364:Src/usbd_conf.c ****     case HAL_OK :
 365:Src/usbd_conf.c ****       usb_status = USBD_OK;
 366:Src/usbd_conf.c ****     break;
 367:Src/usbd_conf.c ****     case HAL_ERROR :
 368:Src/usbd_conf.c ****       usb_status = USBD_FAIL;
 369:Src/usbd_conf.c ****     break;
 370:Src/usbd_conf.c ****     case HAL_BUSY :
 371:Src/usbd_conf.c ****       usb_status = USBD_BUSY;
 372:Src/usbd_conf.c ****     break;
 373:Src/usbd_conf.c ****     case HAL_TIMEOUT :
 374:Src/usbd_conf.c ****       usb_status = USBD_FAIL;
 375:Src/usbd_conf.c ****     break;
ARM GAS  /tmp/cc0XYibz.s 			page 8


 376:Src/usbd_conf.c ****     default :
 377:Src/usbd_conf.c ****       usb_status = USBD_FAIL;
 378:Src/usbd_conf.c ****     break;
 379:Src/usbd_conf.c ****   }
 380:Src/usbd_conf.c ****   return usb_status;
 381:Src/usbd_conf.c **** }
 382:Src/usbd_conf.c **** 
 383:Src/usbd_conf.c **** /**
 384:Src/usbd_conf.c ****   * @brief  Stops the low level portion of the device driver.
 385:Src/usbd_conf.c ****   * @param  pdev: Device handle
 386:Src/usbd_conf.c ****   * @retval USBD status
 387:Src/usbd_conf.c ****   */
 388:Src/usbd_conf.c **** USBD_StatusTypeDef USBD_LL_Stop(USBD_HandleTypeDef *pdev)
 389:Src/usbd_conf.c **** {
 390:Src/usbd_conf.c ****   HAL_StatusTypeDef hal_status = HAL_OK;
 391:Src/usbd_conf.c ****   USBD_StatusTypeDef usb_status = USBD_OK;
 392:Src/usbd_conf.c **** 
 393:Src/usbd_conf.c ****   hal_status = HAL_PCD_Stop(pdev->pData);
 394:Src/usbd_conf.c **** 
 395:Src/usbd_conf.c ****   switch (hal_status) {
 396:Src/usbd_conf.c ****     case HAL_OK :
 397:Src/usbd_conf.c ****       usb_status = USBD_OK;
 398:Src/usbd_conf.c ****     break;
 399:Src/usbd_conf.c ****     case HAL_ERROR :
 400:Src/usbd_conf.c ****       usb_status = USBD_FAIL;
 401:Src/usbd_conf.c ****     break;
 402:Src/usbd_conf.c ****     case HAL_BUSY :
 403:Src/usbd_conf.c ****       usb_status = USBD_BUSY;
 404:Src/usbd_conf.c ****     break;
 405:Src/usbd_conf.c ****     case HAL_TIMEOUT :
 406:Src/usbd_conf.c ****       usb_status = USBD_FAIL;
 407:Src/usbd_conf.c ****     break;
 408:Src/usbd_conf.c ****     default :
 409:Src/usbd_conf.c ****       usb_status = USBD_FAIL;
 410:Src/usbd_conf.c ****     break;
 411:Src/usbd_conf.c ****   }
 412:Src/usbd_conf.c ****   return usb_status;
 413:Src/usbd_conf.c **** }
 414:Src/usbd_conf.c **** 
 415:Src/usbd_conf.c **** /**
 416:Src/usbd_conf.c ****   * @brief  Opens an endpoint of the low level driver.
 417:Src/usbd_conf.c ****   * @param  pdev: Device handle
 418:Src/usbd_conf.c ****   * @param  ep_addr: Endpoint number
 419:Src/usbd_conf.c ****   * @param  ep_type: Endpoint type
 420:Src/usbd_conf.c ****   * @param  ep_mps: Endpoint max packet size
 421:Src/usbd_conf.c ****   * @retval USBD status
 422:Src/usbd_conf.c ****   */
 423:Src/usbd_conf.c **** USBD_StatusTypeDef USBD_LL_OpenEP(USBD_HandleTypeDef *pdev, uint8_t ep_addr, uint8_t ep_type, uint1
 424:Src/usbd_conf.c **** {
 425:Src/usbd_conf.c ****   HAL_StatusTypeDef hal_status = HAL_OK;
 426:Src/usbd_conf.c ****   USBD_StatusTypeDef usb_status = USBD_OK;
 427:Src/usbd_conf.c **** 
 428:Src/usbd_conf.c ****   hal_status = HAL_PCD_EP_Open(pdev->pData, ep_addr, ep_mps, ep_type);
 429:Src/usbd_conf.c **** 
 430:Src/usbd_conf.c ****   switch (hal_status) {
 431:Src/usbd_conf.c ****     case HAL_OK :
 432:Src/usbd_conf.c ****       usb_status = USBD_OK;
ARM GAS  /tmp/cc0XYibz.s 			page 9


 433:Src/usbd_conf.c ****     break;
 434:Src/usbd_conf.c ****     case HAL_ERROR :
 435:Src/usbd_conf.c ****       usb_status = USBD_FAIL;
 436:Src/usbd_conf.c ****     break;
 437:Src/usbd_conf.c ****     case HAL_BUSY :
 438:Src/usbd_conf.c ****       usb_status = USBD_BUSY;
 439:Src/usbd_conf.c ****     break;
 440:Src/usbd_conf.c ****     case HAL_TIMEOUT :
 441:Src/usbd_conf.c ****       usb_status = USBD_FAIL;
 442:Src/usbd_conf.c ****     break;
 443:Src/usbd_conf.c ****     default :
 444:Src/usbd_conf.c ****       usb_status = USBD_FAIL;
 445:Src/usbd_conf.c ****     break;
 446:Src/usbd_conf.c ****   }
 447:Src/usbd_conf.c ****   return usb_status;
 448:Src/usbd_conf.c **** }
 449:Src/usbd_conf.c **** 
 450:Src/usbd_conf.c **** /**
 451:Src/usbd_conf.c ****   * @brief  Closes an endpoint of the low level driver.
 452:Src/usbd_conf.c ****   * @param  pdev: Device handle
 453:Src/usbd_conf.c ****   * @param  ep_addr: Endpoint number
 454:Src/usbd_conf.c ****   * @retval USBD status
 455:Src/usbd_conf.c ****   */
 456:Src/usbd_conf.c **** USBD_StatusTypeDef USBD_LL_CloseEP(USBD_HandleTypeDef *pdev, uint8_t ep_addr)
 457:Src/usbd_conf.c **** {
 458:Src/usbd_conf.c ****   HAL_StatusTypeDef hal_status = HAL_OK;
 459:Src/usbd_conf.c ****   USBD_StatusTypeDef usb_status = USBD_OK;
 460:Src/usbd_conf.c ****   
 461:Src/usbd_conf.c ****   hal_status = HAL_PCD_EP_Close(pdev->pData, ep_addr);
 462:Src/usbd_conf.c ****       
 463:Src/usbd_conf.c ****   switch (hal_status) {
 464:Src/usbd_conf.c ****     case HAL_OK :
 465:Src/usbd_conf.c ****       usb_status = USBD_OK;
 466:Src/usbd_conf.c ****     break;
 467:Src/usbd_conf.c ****     case HAL_ERROR :
 468:Src/usbd_conf.c ****       usb_status = USBD_FAIL;
 469:Src/usbd_conf.c ****     break;
 470:Src/usbd_conf.c ****     case HAL_BUSY :
 471:Src/usbd_conf.c ****       usb_status = USBD_BUSY;
 472:Src/usbd_conf.c ****     break;
 473:Src/usbd_conf.c ****     case HAL_TIMEOUT :
 474:Src/usbd_conf.c ****       usb_status = USBD_FAIL;
 475:Src/usbd_conf.c ****     break;
 476:Src/usbd_conf.c ****     default :
 477:Src/usbd_conf.c ****       usb_status = USBD_FAIL;
 478:Src/usbd_conf.c ****     break;
 479:Src/usbd_conf.c ****   }
 480:Src/usbd_conf.c ****   return usb_status;  
 481:Src/usbd_conf.c **** }
 482:Src/usbd_conf.c **** 
 483:Src/usbd_conf.c **** /**
 484:Src/usbd_conf.c ****   * @brief  Flushes an endpoint of the Low Level Driver.
 485:Src/usbd_conf.c ****   * @param  pdev: Device handle
 486:Src/usbd_conf.c ****   * @param  ep_addr: Endpoint number
 487:Src/usbd_conf.c ****   * @retval USBD status
 488:Src/usbd_conf.c ****   */
 489:Src/usbd_conf.c **** USBD_StatusTypeDef USBD_LL_FlushEP(USBD_HandleTypeDef *pdev, uint8_t ep_addr)
ARM GAS  /tmp/cc0XYibz.s 			page 10


 490:Src/usbd_conf.c **** {
 491:Src/usbd_conf.c ****   HAL_StatusTypeDef hal_status = HAL_OK;
 492:Src/usbd_conf.c ****   USBD_StatusTypeDef usb_status = USBD_OK;
 493:Src/usbd_conf.c ****   
 494:Src/usbd_conf.c ****   hal_status = HAL_PCD_EP_Flush(pdev->pData, ep_addr);
 495:Src/usbd_conf.c ****       
 496:Src/usbd_conf.c ****   switch (hal_status) {
 497:Src/usbd_conf.c ****     case HAL_OK :
 498:Src/usbd_conf.c ****       usb_status = USBD_OK;
 499:Src/usbd_conf.c ****     break;
 500:Src/usbd_conf.c ****     case HAL_ERROR :
 501:Src/usbd_conf.c ****       usb_status = USBD_FAIL;
 502:Src/usbd_conf.c ****     break;
 503:Src/usbd_conf.c ****     case HAL_BUSY :
 504:Src/usbd_conf.c ****       usb_status = USBD_BUSY;
 505:Src/usbd_conf.c ****     break;
 506:Src/usbd_conf.c ****     case HAL_TIMEOUT :
 507:Src/usbd_conf.c ****       usb_status = USBD_FAIL;
 508:Src/usbd_conf.c ****     break;
 509:Src/usbd_conf.c ****     default :
 510:Src/usbd_conf.c ****       usb_status = USBD_FAIL;
 511:Src/usbd_conf.c ****     break;
 512:Src/usbd_conf.c ****   }
 513:Src/usbd_conf.c ****   return usb_status;  
 514:Src/usbd_conf.c **** }
 515:Src/usbd_conf.c **** 
 516:Src/usbd_conf.c **** /**
 517:Src/usbd_conf.c ****   * @brief  Sets a Stall condition on an endpoint of the Low Level Driver.
 518:Src/usbd_conf.c ****   * @param  pdev: Device handle
 519:Src/usbd_conf.c ****   * @param  ep_addr: Endpoint number
 520:Src/usbd_conf.c ****   * @retval USBD status
 521:Src/usbd_conf.c ****   */
 522:Src/usbd_conf.c **** USBD_StatusTypeDef USBD_LL_StallEP(USBD_HandleTypeDef *pdev, uint8_t ep_addr)
 523:Src/usbd_conf.c **** {
 524:Src/usbd_conf.c ****   HAL_StatusTypeDef hal_status = HAL_OK;
 525:Src/usbd_conf.c ****   USBD_StatusTypeDef usb_status = USBD_OK;
 526:Src/usbd_conf.c ****   
 527:Src/usbd_conf.c ****   hal_status = HAL_PCD_EP_SetStall(pdev->pData, ep_addr);
 528:Src/usbd_conf.c **** 
 529:Src/usbd_conf.c ****   switch (hal_status) {
 530:Src/usbd_conf.c ****     case HAL_OK :
 531:Src/usbd_conf.c ****       usb_status = USBD_OK;
 532:Src/usbd_conf.c ****     break;
 533:Src/usbd_conf.c ****     case HAL_ERROR :
 534:Src/usbd_conf.c ****       usb_status = USBD_FAIL;
 535:Src/usbd_conf.c ****     break;
 536:Src/usbd_conf.c ****     case HAL_BUSY :
 537:Src/usbd_conf.c ****       usb_status = USBD_BUSY;
 538:Src/usbd_conf.c ****     break;
 539:Src/usbd_conf.c ****     case HAL_TIMEOUT :
 540:Src/usbd_conf.c ****       usb_status = USBD_FAIL;
 541:Src/usbd_conf.c ****     break;
 542:Src/usbd_conf.c ****     default :
 543:Src/usbd_conf.c ****       usb_status = USBD_FAIL;
 544:Src/usbd_conf.c ****     break;
 545:Src/usbd_conf.c ****   }
 546:Src/usbd_conf.c ****   return usb_status;  
ARM GAS  /tmp/cc0XYibz.s 			page 11


 547:Src/usbd_conf.c **** }
 548:Src/usbd_conf.c **** 
 549:Src/usbd_conf.c **** /**
 550:Src/usbd_conf.c ****   * @brief  Clears a Stall condition on an endpoint of the Low Level Driver.
 551:Src/usbd_conf.c ****   * @param  pdev: Device handle
 552:Src/usbd_conf.c ****   * @param  ep_addr: Endpoint number
 553:Src/usbd_conf.c ****   * @retval USBD status
 554:Src/usbd_conf.c ****   */
 555:Src/usbd_conf.c **** USBD_StatusTypeDef USBD_LL_ClearStallEP(USBD_HandleTypeDef *pdev, uint8_t ep_addr)
 556:Src/usbd_conf.c **** {
 557:Src/usbd_conf.c ****   HAL_StatusTypeDef hal_status = HAL_OK;
 558:Src/usbd_conf.c ****   USBD_StatusTypeDef usb_status = USBD_OK;
 559:Src/usbd_conf.c ****   
 560:Src/usbd_conf.c ****   hal_status = HAL_PCD_EP_ClrStall(pdev->pData, ep_addr);  
 561:Src/usbd_conf.c ****      
 562:Src/usbd_conf.c ****   switch (hal_status) {
 563:Src/usbd_conf.c ****     case HAL_OK :
 564:Src/usbd_conf.c ****       usb_status = USBD_OK;
 565:Src/usbd_conf.c ****     break;
 566:Src/usbd_conf.c ****     case HAL_ERROR :
 567:Src/usbd_conf.c ****       usb_status = USBD_FAIL;
 568:Src/usbd_conf.c ****     break;
 569:Src/usbd_conf.c ****     case HAL_BUSY :
 570:Src/usbd_conf.c ****       usb_status = USBD_BUSY;
 571:Src/usbd_conf.c ****     break;
 572:Src/usbd_conf.c ****     case HAL_TIMEOUT :
 573:Src/usbd_conf.c ****       usb_status = USBD_FAIL;
 574:Src/usbd_conf.c ****     break;
 575:Src/usbd_conf.c ****     default :
 576:Src/usbd_conf.c ****       usb_status = USBD_FAIL;
 577:Src/usbd_conf.c ****     break;
 578:Src/usbd_conf.c ****   }
 579:Src/usbd_conf.c ****   return usb_status; 
 580:Src/usbd_conf.c **** }
 581:Src/usbd_conf.c **** 
 582:Src/usbd_conf.c **** /**
 583:Src/usbd_conf.c ****   * @brief  Returns Stall condition.
 584:Src/usbd_conf.c ****   * @param  pdev: Device handle
 585:Src/usbd_conf.c ****   * @param  ep_addr: Endpoint number
 586:Src/usbd_conf.c ****   * @retval Stall (1: Yes, 0: No)
 587:Src/usbd_conf.c ****   */
 588:Src/usbd_conf.c **** uint8_t USBD_LL_IsStallEP(USBD_HandleTypeDef *pdev, uint8_t ep_addr)
 589:Src/usbd_conf.c **** {
 590:Src/usbd_conf.c ****   PCD_HandleTypeDef *hpcd = (PCD_HandleTypeDef*) pdev->pData;
 591:Src/usbd_conf.c ****   
 592:Src/usbd_conf.c ****   if((ep_addr & 0x80) == 0x80)
 593:Src/usbd_conf.c ****   {
 594:Src/usbd_conf.c ****     return hpcd->IN_ep[ep_addr & 0x7F].is_stall; 
 595:Src/usbd_conf.c ****   }
 596:Src/usbd_conf.c ****   else
 597:Src/usbd_conf.c ****   {
 598:Src/usbd_conf.c ****     return hpcd->OUT_ep[ep_addr & 0x7F].is_stall; 
 599:Src/usbd_conf.c ****   }
 600:Src/usbd_conf.c **** }
 601:Src/usbd_conf.c **** 
 602:Src/usbd_conf.c **** /**
 603:Src/usbd_conf.c ****   * @brief  Assigns a USB address to the device.
ARM GAS  /tmp/cc0XYibz.s 			page 12


 604:Src/usbd_conf.c ****   * @param  pdev: Device handle
 605:Src/usbd_conf.c ****   * @param  dev_addr: Device address
 606:Src/usbd_conf.c ****   * @retval USBD status
 607:Src/usbd_conf.c ****   */
 608:Src/usbd_conf.c **** USBD_StatusTypeDef USBD_LL_SetUSBAddress(USBD_HandleTypeDef *pdev, uint8_t dev_addr)
 609:Src/usbd_conf.c **** {
 610:Src/usbd_conf.c ****   HAL_StatusTypeDef hal_status = HAL_OK;
 611:Src/usbd_conf.c ****   USBD_StatusTypeDef usb_status = USBD_OK;
 612:Src/usbd_conf.c ****   
 613:Src/usbd_conf.c ****   hal_status = HAL_PCD_SetAddress(pdev->pData, dev_addr);
 614:Src/usbd_conf.c ****      
 615:Src/usbd_conf.c ****   switch (hal_status) {
 616:Src/usbd_conf.c ****     case HAL_OK :
 617:Src/usbd_conf.c ****       usb_status = USBD_OK;
 618:Src/usbd_conf.c ****     break;
 619:Src/usbd_conf.c ****     case HAL_ERROR :
 620:Src/usbd_conf.c ****       usb_status = USBD_FAIL;
 621:Src/usbd_conf.c ****     break;
 622:Src/usbd_conf.c ****     case HAL_BUSY :
 623:Src/usbd_conf.c ****       usb_status = USBD_BUSY;
 624:Src/usbd_conf.c ****     break;
 625:Src/usbd_conf.c ****     case HAL_TIMEOUT :
 626:Src/usbd_conf.c ****       usb_status = USBD_FAIL;
 627:Src/usbd_conf.c ****     break;
 628:Src/usbd_conf.c ****     default :
 629:Src/usbd_conf.c ****       usb_status = USBD_FAIL;
 630:Src/usbd_conf.c ****     break;
 631:Src/usbd_conf.c ****   }
 632:Src/usbd_conf.c ****   return usb_status;  
 633:Src/usbd_conf.c **** }
 634:Src/usbd_conf.c **** 
 635:Src/usbd_conf.c **** /**
 636:Src/usbd_conf.c ****   * @brief  Transmits data over an endpoint.
 637:Src/usbd_conf.c ****   * @param  pdev: Device handle
 638:Src/usbd_conf.c ****   * @param  ep_addr: Endpoint number
 639:Src/usbd_conf.c ****   * @param  pbuf: Pointer to data to be sent
 640:Src/usbd_conf.c ****   * @param  size: Data size    
 641:Src/usbd_conf.c ****   * @retval USBD status
 642:Src/usbd_conf.c ****   */
 643:Src/usbd_conf.c **** USBD_StatusTypeDef USBD_LL_Transmit(USBD_HandleTypeDef *pdev, uint8_t ep_addr, uint8_t *pbuf, uint1
 644:Src/usbd_conf.c **** {
 645:Src/usbd_conf.c ****   HAL_StatusTypeDef hal_status = HAL_OK;
 646:Src/usbd_conf.c ****   USBD_StatusTypeDef usb_status = USBD_OK;
 647:Src/usbd_conf.c **** 
 648:Src/usbd_conf.c ****   hal_status = HAL_PCD_EP_Transmit(pdev->pData, ep_addr, pbuf, size);
 649:Src/usbd_conf.c ****      
 650:Src/usbd_conf.c ****   switch (hal_status) {
 651:Src/usbd_conf.c ****     case HAL_OK :
 652:Src/usbd_conf.c ****       usb_status = USBD_OK;
 653:Src/usbd_conf.c ****     break;
 654:Src/usbd_conf.c ****     case HAL_ERROR :
 655:Src/usbd_conf.c ****       usb_status = USBD_FAIL;
 656:Src/usbd_conf.c ****     break;
 657:Src/usbd_conf.c ****     case HAL_BUSY :
 658:Src/usbd_conf.c ****       usb_status = USBD_BUSY;
 659:Src/usbd_conf.c ****     break;
 660:Src/usbd_conf.c ****     case HAL_TIMEOUT :
ARM GAS  /tmp/cc0XYibz.s 			page 13


 661:Src/usbd_conf.c ****       usb_status = USBD_FAIL;
 662:Src/usbd_conf.c ****     break;
 663:Src/usbd_conf.c ****     default :
 664:Src/usbd_conf.c ****       usb_status = USBD_FAIL;
 665:Src/usbd_conf.c ****     break;
 666:Src/usbd_conf.c ****   }
 667:Src/usbd_conf.c ****   return usb_status;    
 668:Src/usbd_conf.c **** }
 669:Src/usbd_conf.c **** 
 670:Src/usbd_conf.c **** /**
 671:Src/usbd_conf.c ****   * @brief  Prepares an endpoint for reception.
 672:Src/usbd_conf.c ****   * @param  pdev: Device handle
 673:Src/usbd_conf.c ****   * @param  ep_addr: Endpoint number
 674:Src/usbd_conf.c ****   * @param  pbuf: Pointer to data to be received
 675:Src/usbd_conf.c ****   * @param  size: Data size
 676:Src/usbd_conf.c ****   * @retval USBD status
 677:Src/usbd_conf.c ****   */
 678:Src/usbd_conf.c **** USBD_StatusTypeDef USBD_LL_PrepareReceive(USBD_HandleTypeDef *pdev, uint8_t ep_addr, uint8_t *pbuf,
 679:Src/usbd_conf.c **** {
 680:Src/usbd_conf.c ****   HAL_StatusTypeDef hal_status = HAL_OK;
 681:Src/usbd_conf.c ****   USBD_StatusTypeDef usb_status = USBD_OK;
 682:Src/usbd_conf.c **** 
 683:Src/usbd_conf.c ****   hal_status = HAL_PCD_EP_Receive(pdev->pData, ep_addr, pbuf, size);
 684:Src/usbd_conf.c ****      
 685:Src/usbd_conf.c ****   switch (hal_status) {
 686:Src/usbd_conf.c ****     case HAL_OK :
 687:Src/usbd_conf.c ****       usb_status = USBD_OK;
 688:Src/usbd_conf.c ****     break;
 689:Src/usbd_conf.c ****     case HAL_ERROR :
 690:Src/usbd_conf.c ****       usb_status = USBD_FAIL;
 691:Src/usbd_conf.c ****     break;
 692:Src/usbd_conf.c ****     case HAL_BUSY :
 693:Src/usbd_conf.c ****       usb_status = USBD_BUSY;
 694:Src/usbd_conf.c ****     break;
 695:Src/usbd_conf.c ****     case HAL_TIMEOUT :
 696:Src/usbd_conf.c ****       usb_status = USBD_FAIL;
 697:Src/usbd_conf.c ****     break;
 698:Src/usbd_conf.c ****     default :
 699:Src/usbd_conf.c ****       usb_status = USBD_FAIL;
 700:Src/usbd_conf.c ****     break;
 701:Src/usbd_conf.c ****   }
 702:Src/usbd_conf.c ****   return usb_status; 
 703:Src/usbd_conf.c **** }
 704:Src/usbd_conf.c **** 
 705:Src/usbd_conf.c **** /**
 706:Src/usbd_conf.c ****   * @brief  Returns the last transfered packet size.
 707:Src/usbd_conf.c ****   * @param  pdev: Device handle
 708:Src/usbd_conf.c ****   * @param  ep_addr: Endpoint number
 709:Src/usbd_conf.c ****   * @retval Recived Data Size
 710:Src/usbd_conf.c ****   */
 711:Src/usbd_conf.c **** uint32_t USBD_LL_GetRxDataSize(USBD_HandleTypeDef *pdev, uint8_t ep_addr)
 712:Src/usbd_conf.c **** {
 713:Src/usbd_conf.c ****   return HAL_PCD_EP_GetRxCount((PCD_HandleTypeDef*) pdev->pData, ep_addr);
 714:Src/usbd_conf.c **** }
 715:Src/usbd_conf.c **** 
 716:Src/usbd_conf.c **** /**
 717:Src/usbd_conf.c ****   * @brief  Delays routine for the USB device library.
ARM GAS  /tmp/cc0XYibz.s 			page 14


 718:Src/usbd_conf.c ****   * @param  Delay: Delay in ms
 719:Src/usbd_conf.c ****   * @retval None
 720:Src/usbd_conf.c ****   */
 721:Src/usbd_conf.c **** void USBD_LL_Delay(uint32_t Delay)
 722:Src/usbd_conf.c **** {
 723:Src/usbd_conf.c ****   HAL_Delay(Delay);
 724:Src/usbd_conf.c **** }
 725:Src/usbd_conf.c **** 
 726:Src/usbd_conf.c **** /**
 727:Src/usbd_conf.c ****   * @brief  Static single allocation.
 728:Src/usbd_conf.c ****   * @param  size: Size of allocated memory
 729:Src/usbd_conf.c ****   * @retval None
 730:Src/usbd_conf.c ****   */
 731:Src/usbd_conf.c **** void *USBD_static_malloc(uint32_t size)
 732:Src/usbd_conf.c **** {
 733:Src/usbd_conf.c ****   static uint32_t mem[(sizeof(USBD_CDC_HandleTypeDef)/4)+1];/* On 32-bit boundary */
 734:Src/usbd_conf.c ****   return mem;
 735:Src/usbd_conf.c **** }
 736:Src/usbd_conf.c **** 
 737:Src/usbd_conf.c **** /**
 738:Src/usbd_conf.c ****   * @brief  Dummy memory free
 739:Src/usbd_conf.c ****   * @param  p: Pointer to allocated  memory address
 740:Src/usbd_conf.c ****   * @retval None
 741:Src/usbd_conf.c ****   */
 742:Src/usbd_conf.c **** void USBD_static_free(void *p)
 743:Src/usbd_conf.c **** {
 744:Src/usbd_conf.c **** 
 745:Src/usbd_conf.c **** }
 746:Src/usbd_conf.c **** 
 747:Src/usbd_conf.c **** /* USER CODE BEGIN 5 */
 748:Src/usbd_conf.c **** /**
 749:Src/usbd_conf.c ****   * @brief  Configures system clock after wake-up from USB Resume CallBack:
 750:Src/usbd_conf.c ****   *         enable HSI, PLL and select PLL as system clock source.
 751:Src/usbd_conf.c ****   * @retval None
 752:Src/usbd_conf.c ****   */
 753:Src/usbd_conf.c **** static void SystemClockConfig_Resume(void)
 754:Src/usbd_conf.c **** {
  26              		.loc 1 754 1 view -0
  27              		.cfi_startproc
  28              		@ args = 0, pretend = 0, frame = 0
  29              		@ frame_needed = 0, uses_anonymous_args = 0
  30 0000 10B5     		push	{r4, lr}
  31              	.LCFI0:
  32              		.cfi_def_cfa_offset 8
  33              		.cfi_offset 4, -8
  34              		.cfi_offset 14, -4
 755:Src/usbd_conf.c ****   SystemClock_Config();
  35              		.loc 1 755 3 view .LVU1
  36 0002 FFF7FEFF 		bl	SystemClock_Config
  37              	.LVL0:
 756:Src/usbd_conf.c **** }
  38              		.loc 1 756 1 is_stmt 0 view .LVU2
  39              		@ sp needed
  40 0006 10BD     		pop	{r4, pc}
  41              		.cfi_endproc
  42              	.LFE67:
  44              		.section	.text.HAL_PCD_MspInit,"ax",%progbits
ARM GAS  /tmp/cc0XYibz.s 			page 15


  45              		.align	1
  46              		.global	HAL_PCD_MspInit
  47              		.syntax unified
  48              		.code	16
  49              		.thumb_func
  50              		.fpu softvfp
  52              	HAL_PCD_MspInit:
  53              	.LVL1:
  54              	.LFB37:
  96:Src/usbd_conf.c ****   if(pcdHandle->Instance==USB)
  55              		.loc 1 96 1 is_stmt 1 view -0
  56              		.cfi_startproc
  57              		@ args = 0, pretend = 0, frame = 8
  58              		@ frame_needed = 0, uses_anonymous_args = 0
  96:Src/usbd_conf.c ****   if(pcdHandle->Instance==USB)
  59              		.loc 1 96 1 is_stmt 0 view .LVU4
  60 0000 00B5     		push	{lr}
  61              	.LCFI1:
  62              		.cfi_def_cfa_offset 4
  63              		.cfi_offset 14, -4
  64 0002 83B0     		sub	sp, sp, #12
  65              	.LCFI2:
  66              		.cfi_def_cfa_offset 16
  97:Src/usbd_conf.c ****   {
  67              		.loc 1 97 3 is_stmt 1 view .LVU5
  97:Src/usbd_conf.c ****   {
  68              		.loc 1 97 15 is_stmt 0 view .LVU6
  69 0004 0268     		ldr	r2, [r0]
  97:Src/usbd_conf.c ****   {
  70              		.loc 1 97 5 view .LVU7
  71 0006 0C4B     		ldr	r3, .L5
  72 0008 9A42     		cmp	r2, r3
  73 000a 01D0     		beq	.L4
  74              	.LVL2:
  75              	.L2:
 112:Src/usbd_conf.c **** 
  76              		.loc 1 112 1 view .LVU8
  77 000c 03B0     		add	sp, sp, #12
  78              		@ sp needed
  79 000e 00BD     		pop	{pc}
  80              	.LVL3:
  81              	.L4:
 103:Src/usbd_conf.c **** 
  82              		.loc 1 103 5 is_stmt 1 view .LVU9
  83              	.LBB2:
 103:Src/usbd_conf.c **** 
  84              		.loc 1 103 5 view .LVU10
 103:Src/usbd_conf.c **** 
  85              		.loc 1 103 5 view .LVU11
  86 0010 0A4A     		ldr	r2, .L5+4
  87 0012 D169     		ldr	r1, [r2, #28]
  88 0014 8020     		movs	r0, #128
  89              	.LVL4:
 103:Src/usbd_conf.c **** 
  90              		.loc 1 103 5 is_stmt 0 view .LVU12
  91 0016 0004     		lsls	r0, r0, #16
  92 0018 0143     		orrs	r1, r0
ARM GAS  /tmp/cc0XYibz.s 			page 16


  93 001a D161     		str	r1, [r2, #28]
 103:Src/usbd_conf.c **** 
  94              		.loc 1 103 5 is_stmt 1 view .LVU13
  95 001c D369     		ldr	r3, [r2, #28]
  96 001e 0340     		ands	r3, r0
  97 0020 0193     		str	r3, [sp, #4]
 103:Src/usbd_conf.c **** 
  98              		.loc 1 103 5 view .LVU14
  99 0022 019B     		ldr	r3, [sp, #4]
 100              	.LBE2:
 106:Src/usbd_conf.c ****     HAL_NVIC_EnableIRQ(USB_IRQn);
 101              		.loc 1 106 5 view .LVU15
 102 0024 0022     		movs	r2, #0
 103 0026 0021     		movs	r1, #0
 104 0028 1F20     		movs	r0, #31
 105 002a FFF7FEFF 		bl	HAL_NVIC_SetPriority
 106              	.LVL5:
 107:Src/usbd_conf.c ****   /* USER CODE BEGIN USB_MspInit 1 */
 107              		.loc 1 107 5 view .LVU16
 108 002e 1F20     		movs	r0, #31
 109 0030 FFF7FEFF 		bl	HAL_NVIC_EnableIRQ
 110              	.LVL6:
 112:Src/usbd_conf.c **** 
 111              		.loc 1 112 1 is_stmt 0 view .LVU17
 112 0034 EAE7     		b	.L2
 113              	.L6:
 114 0036 C046     		.align	2
 115              	.L5:
 116 0038 005C0040 		.word	1073765376
 117 003c 00100240 		.word	1073876992
 118              		.cfi_endproc
 119              	.LFE37:
 121              		.section	.text.HAL_PCD_MspDeInit,"ax",%progbits
 122              		.align	1
 123              		.global	HAL_PCD_MspDeInit
 124              		.syntax unified
 125              		.code	16
 126              		.thumb_func
 127              		.fpu softvfp
 129              	HAL_PCD_MspDeInit:
 130              	.LVL7:
 131              	.LFB38:
 115:Src/usbd_conf.c ****   if(pcdHandle->Instance==USB)
 132              		.loc 1 115 1 is_stmt 1 view -0
 133              		.cfi_startproc
 134              		@ args = 0, pretend = 0, frame = 0
 135              		@ frame_needed = 0, uses_anonymous_args = 0
 115:Src/usbd_conf.c ****   if(pcdHandle->Instance==USB)
 136              		.loc 1 115 1 is_stmt 0 view .LVU19
 137 0000 10B5     		push	{r4, lr}
 138              	.LCFI3:
 139              		.cfi_def_cfa_offset 8
 140              		.cfi_offset 4, -8
 141              		.cfi_offset 14, -4
 116:Src/usbd_conf.c ****   {
 142              		.loc 1 116 3 is_stmt 1 view .LVU20
 116:Src/usbd_conf.c ****   {
ARM GAS  /tmp/cc0XYibz.s 			page 17


 143              		.loc 1 116 15 is_stmt 0 view .LVU21
 144 0002 0268     		ldr	r2, [r0]
 116:Src/usbd_conf.c ****   {
 145              		.loc 1 116 5 view .LVU22
 146 0004 064B     		ldr	r3, .L10
 147 0006 9A42     		cmp	r2, r3
 148 0008 00D0     		beq	.L9
 149              	.LVL8:
 150              	.L7:
 131:Src/usbd_conf.c **** 
 151              		.loc 1 131 1 view .LVU23
 152              		@ sp needed
 153 000a 10BD     		pop	{r4, pc}
 154              	.LVL9:
 155              	.L9:
 122:Src/usbd_conf.c **** 
 156              		.loc 1 122 5 is_stmt 1 view .LVU24
 157 000c 054A     		ldr	r2, .L10+4
 158 000e D369     		ldr	r3, [r2, #28]
 159 0010 0549     		ldr	r1, .L10+8
 160 0012 0B40     		ands	r3, r1
 161 0014 D361     		str	r3, [r2, #28]
 125:Src/usbd_conf.c **** 
 162              		.loc 1 125 5 view .LVU25
 163 0016 1F20     		movs	r0, #31
 164              	.LVL10:
 125:Src/usbd_conf.c **** 
 165              		.loc 1 125 5 is_stmt 0 view .LVU26
 166 0018 FFF7FEFF 		bl	HAL_NVIC_DisableIRQ
 167              	.LVL11:
 131:Src/usbd_conf.c **** 
 168              		.loc 1 131 1 view .LVU27
 169 001c F5E7     		b	.L7
 170              	.L11:
 171 001e C046     		.align	2
 172              	.L10:
 173 0020 005C0040 		.word	1073765376
 174 0024 00100240 		.word	1073876992
 175 0028 FFFF7FFF 		.word	-8388609
 176              		.cfi_endproc
 177              	.LFE38:
 179              		.section	.text.HAL_PCD_SetupStageCallback,"ax",%progbits
 180              		.align	1
 181              		.global	HAL_PCD_SetupStageCallback
 182              		.syntax unified
 183              		.code	16
 184              		.thumb_func
 185              		.fpu softvfp
 187              	HAL_PCD_SetupStageCallback:
 188              	.LVL12:
 189              	.LFB39:
 139:Src/usbd_conf.c ****   USBD_LL_SetupStage((USBD_HandleTypeDef*)hpcd->pData, (uint8_t *)hpcd->Setup);
 190              		.loc 1 139 1 is_stmt 1 view -0
 191              		.cfi_startproc
 192              		@ args = 0, pretend = 0, frame = 0
 193              		@ frame_needed = 0, uses_anonymous_args = 0
 139:Src/usbd_conf.c ****   USBD_LL_SetupStage((USBD_HandleTypeDef*)hpcd->pData, (uint8_t *)hpcd->Setup);
ARM GAS  /tmp/cc0XYibz.s 			page 18


 194              		.loc 1 139 1 is_stmt 0 view .LVU29
 195 0000 10B5     		push	{r4, lr}
 196              	.LCFI4:
 197              		.cfi_def_cfa_offset 8
 198              		.cfi_offset 4, -8
 199              		.cfi_offset 14, -4
 200 0002 0100     		movs	r1, r0
 140:Src/usbd_conf.c **** }
 201              		.loc 1 140 3 is_stmt 1 view .LVU30
 140:Src/usbd_conf.c **** }
 202              		.loc 1 140 47 is_stmt 0 view .LVU31
 203 0004 8723     		movs	r3, #135
 204 0006 9B00     		lsls	r3, r3, #2
 205 0008 C058     		ldr	r0, [r0, r3]
 206              	.LVL13:
 140:Src/usbd_conf.c **** }
 207              		.loc 1 140 67 view .LVU32
 208 000a ED31     		adds	r1, r1, #237
 209              	.LVL14:
 140:Src/usbd_conf.c **** }
 210              		.loc 1 140 67 view .LVU33
 211 000c FF31     		adds	r1, r1, #255
 212              	.LVL15:
 140:Src/usbd_conf.c **** }
 213              		.loc 1 140 3 view .LVU34
 214 000e FFF7FEFF 		bl	USBD_LL_SetupStage
 215              	.LVL16:
 141:Src/usbd_conf.c **** 
 216              		.loc 1 141 1 view .LVU35
 217              		@ sp needed
 218 0012 10BD     		pop	{r4, pc}
 219              		.cfi_endproc
 220              	.LFE39:
 222              		.section	.text.HAL_PCD_DataOutStageCallback,"ax",%progbits
 223              		.align	1
 224              		.global	HAL_PCD_DataOutStageCallback
 225              		.syntax unified
 226              		.code	16
 227              		.thumb_func
 228              		.fpu softvfp
 230              	HAL_PCD_DataOutStageCallback:
 231              	.LVL17:
 232              	.LFB40:
 150:Src/usbd_conf.c ****   USBD_LL_DataOutStage((USBD_HandleTypeDef*)hpcd->pData, epnum, hpcd->OUT_ep[epnum].xfer_buff);
 233              		.loc 1 150 1 is_stmt 1 view -0
 234              		.cfi_startproc
 235              		@ args = 0, pretend = 0, frame = 0
 236              		@ frame_needed = 0, uses_anonymous_args = 0
 150:Src/usbd_conf.c ****   USBD_LL_DataOutStage((USBD_HandleTypeDef*)hpcd->pData, epnum, hpcd->OUT_ep[epnum].xfer_buff);
 237              		.loc 1 150 1 is_stmt 0 view .LVU37
 238 0000 10B5     		push	{r4, lr}
 239              	.LCFI5:
 240              		.cfi_def_cfa_offset 8
 241              		.cfi_offset 4, -8
 242              		.cfi_offset 14, -4
 243 0002 0300     		movs	r3, r0
 151:Src/usbd_conf.c **** }
ARM GAS  /tmp/cc0XYibz.s 			page 19


 244              		.loc 1 151 3 is_stmt 1 view .LVU38
 151:Src/usbd_conf.c **** }
 245              		.loc 1 151 49 is_stmt 0 view .LVU39
 246 0004 8722     		movs	r2, #135
 247 0006 9200     		lsls	r2, r2, #2
 248 0008 8058     		ldr	r0, [r0, r2]
 249              	.LVL18:
 151:Src/usbd_conf.c **** }
 250              		.loc 1 151 3 view .LVU40
 251 000a CA00     		lsls	r2, r1, #3
 252 000c 521A     		subs	r2, r2, r1
 253 000e 9400     		lsls	r4, r2, #2
 254 0010 1B19     		adds	r3, r3, r4
 255              	.LVL19:
 151:Src/usbd_conf.c **** }
 256              		.loc 1 151 3 view .LVU41
 257 0012 1933     		adds	r3, r3, #25
 258 0014 FF33     		adds	r3, r3, #255
 259 0016 1A68     		ldr	r2, [r3]
 260 0018 FFF7FEFF 		bl	USBD_LL_DataOutStage
 261              	.LVL20:
 152:Src/usbd_conf.c **** 
 262              		.loc 1 152 1 view .LVU42
 263              		@ sp needed
 264 001c 10BD     		pop	{r4, pc}
 265              		.cfi_endproc
 266              	.LFE40:
 268              		.section	.text.HAL_PCD_DataInStageCallback,"ax",%progbits
 269              		.align	1
 270              		.global	HAL_PCD_DataInStageCallback
 271              		.syntax unified
 272              		.code	16
 273              		.thumb_func
 274              		.fpu softvfp
 276              	HAL_PCD_DataInStageCallback:
 277              	.LVL21:
 278              	.LFB41:
 161:Src/usbd_conf.c ****   USBD_LL_DataInStage((USBD_HandleTypeDef*)hpcd->pData, epnum, hpcd->IN_ep[epnum].xfer_buff);
 279              		.loc 1 161 1 is_stmt 1 view -0
 280              		.cfi_startproc
 281              		@ args = 0, pretend = 0, frame = 0
 282              		@ frame_needed = 0, uses_anonymous_args = 0
 161:Src/usbd_conf.c ****   USBD_LL_DataInStage((USBD_HandleTypeDef*)hpcd->pData, epnum, hpcd->IN_ep[epnum].xfer_buff);
 283              		.loc 1 161 1 is_stmt 0 view .LVU44
 284 0000 10B5     		push	{r4, lr}
 285              	.LCFI6:
 286              		.cfi_def_cfa_offset 8
 287              		.cfi_offset 4, -8
 288              		.cfi_offset 14, -4
 289 0002 0300     		movs	r3, r0
 162:Src/usbd_conf.c **** }
 290              		.loc 1 162 3 is_stmt 1 view .LVU45
 162:Src/usbd_conf.c **** }
 291              		.loc 1 162 48 is_stmt 0 view .LVU46
 292 0004 8722     		movs	r2, #135
 293 0006 9200     		lsls	r2, r2, #2
 294 0008 8058     		ldr	r0, [r0, r2]
ARM GAS  /tmp/cc0XYibz.s 			page 20


 295              	.LVL22:
 162:Src/usbd_conf.c **** }
 296              		.loc 1 162 3 view .LVU47
 297 000a CA00     		lsls	r2, r1, #3
 298 000c 521A     		subs	r2, r2, r1
 299 000e 9400     		lsls	r4, r2, #2
 300 0010 1B19     		adds	r3, r3, r4
 301              	.LVL23:
 162:Src/usbd_conf.c **** }
 302              		.loc 1 162 3 view .LVU48
 303 0012 9A6B     		ldr	r2, [r3, #56]
 304 0014 FFF7FEFF 		bl	USBD_LL_DataInStage
 305              	.LVL24:
 163:Src/usbd_conf.c **** 
 306              		.loc 1 163 1 view .LVU49
 307              		@ sp needed
 308 0018 10BD     		pop	{r4, pc}
 309              		.cfi_endproc
 310              	.LFE41:
 312              		.section	.text.HAL_PCD_SOFCallback,"ax",%progbits
 313              		.align	1
 314              		.global	HAL_PCD_SOFCallback
 315              		.syntax unified
 316              		.code	16
 317              		.thumb_func
 318              		.fpu softvfp
 320              	HAL_PCD_SOFCallback:
 321              	.LVL25:
 322              	.LFB42:
 171:Src/usbd_conf.c ****   USBD_LL_SOF((USBD_HandleTypeDef*)hpcd->pData);
 323              		.loc 1 171 1 is_stmt 1 view -0
 324              		.cfi_startproc
 325              		@ args = 0, pretend = 0, frame = 0
 326              		@ frame_needed = 0, uses_anonymous_args = 0
 171:Src/usbd_conf.c ****   USBD_LL_SOF((USBD_HandleTypeDef*)hpcd->pData);
 327              		.loc 1 171 1 is_stmt 0 view .LVU51
 328 0000 10B5     		push	{r4, lr}
 329              	.LCFI7:
 330              		.cfi_def_cfa_offset 8
 331              		.cfi_offset 4, -8
 332              		.cfi_offset 14, -4
 172:Src/usbd_conf.c **** }
 333              		.loc 1 172 3 is_stmt 1 view .LVU52
 172:Src/usbd_conf.c **** }
 334              		.loc 1 172 40 is_stmt 0 view .LVU53
 335 0002 8723     		movs	r3, #135
 336 0004 9B00     		lsls	r3, r3, #2
 337 0006 C058     		ldr	r0, [r0, r3]
 338              	.LVL26:
 172:Src/usbd_conf.c **** }
 339              		.loc 1 172 3 view .LVU54
 340 0008 FFF7FEFF 		bl	USBD_LL_SOF
 341              	.LVL27:
 173:Src/usbd_conf.c **** 
 342              		.loc 1 173 1 view .LVU55
 343              		@ sp needed
 344 000c 10BD     		pop	{r4, pc}
ARM GAS  /tmp/cc0XYibz.s 			page 21


 345              		.cfi_endproc
 346              	.LFE42:
 348              		.section	.text.HAL_PCD_ResetCallback,"ax",%progbits
 349              		.align	1
 350              		.global	HAL_PCD_ResetCallback
 351              		.syntax unified
 352              		.code	16
 353              		.thumb_func
 354              		.fpu softvfp
 356              	HAL_PCD_ResetCallback:
 357              	.LVL28:
 358              	.LFB43:
 181:Src/usbd_conf.c ****   USBD_SpeedTypeDef speed = USBD_SPEED_FULL;
 359              		.loc 1 181 1 is_stmt 1 view -0
 360              		.cfi_startproc
 361              		@ args = 0, pretend = 0, frame = 0
 362              		@ frame_needed = 0, uses_anonymous_args = 0
 181:Src/usbd_conf.c ****   USBD_SpeedTypeDef speed = USBD_SPEED_FULL;
 363              		.loc 1 181 1 is_stmt 0 view .LVU57
 364 0000 70B5     		push	{r4, r5, r6, lr}
 365              	.LCFI8:
 366              		.cfi_def_cfa_offset 16
 367              		.cfi_offset 4, -16
 368              		.cfi_offset 5, -12
 369              		.cfi_offset 6, -8
 370              		.cfi_offset 14, -4
 371 0002 0500     		movs	r5, r0
 182:Src/usbd_conf.c **** 
 372              		.loc 1 182 3 is_stmt 1 view .LVU58
 373              	.LVL29:
 185:Src/usbd_conf.c ****   {
 374              		.loc 1 185 3 view .LVU59
 195:Src/usbd_conf.c ****   
 375              		.loc 1 195 3 view .LVU60
 195:Src/usbd_conf.c ****   
 376              		.loc 1 195 45 is_stmt 0 view .LVU61
 377 0004 8724     		movs	r4, #135
 378 0006 A400     		lsls	r4, r4, #2
 195:Src/usbd_conf.c ****   
 379              		.loc 1 195 3 view .LVU62
 380 0008 0121     		movs	r1, #1
 381 000a 0059     		ldr	r0, [r0, r4]
 382              	.LVL30:
 195:Src/usbd_conf.c ****   
 383              		.loc 1 195 3 view .LVU63
 384 000c FFF7FEFF 		bl	USBD_LL_SetSpeed
 385              	.LVL31:
 198:Src/usbd_conf.c **** }
 386              		.loc 1 198 3 is_stmt 1 view .LVU64
 198:Src/usbd_conf.c **** }
 387              		.loc 1 198 42 is_stmt 0 view .LVU65
 388 0010 2859     		ldr	r0, [r5, r4]
 198:Src/usbd_conf.c **** }
 389              		.loc 1 198 3 view .LVU66
 390 0012 FFF7FEFF 		bl	USBD_LL_Reset
 391              	.LVL32:
 199:Src/usbd_conf.c **** 
ARM GAS  /tmp/cc0XYibz.s 			page 22


 392              		.loc 1 199 1 view .LVU67
 393              		@ sp needed
 394              	.LVL33:
 199:Src/usbd_conf.c **** 
 395              		.loc 1 199 1 view .LVU68
 396 0016 70BD     		pop	{r4, r5, r6, pc}
 397              		.cfi_endproc
 398              	.LFE43:
 400              		.section	.text.HAL_PCD_SuspendCallback,"ax",%progbits
 401              		.align	1
 402              		.global	HAL_PCD_SuspendCallback
 403              		.syntax unified
 404              		.code	16
 405              		.thumb_func
 406              		.fpu softvfp
 408              	HAL_PCD_SuspendCallback:
 409              	.LVL34:
 410              	.LFB44:
 208:Src/usbd_conf.c ****   /* Inform USB library that core enters in suspend Mode. */
 411              		.loc 1 208 1 is_stmt 1 view -0
 412              		.cfi_startproc
 413              		@ args = 0, pretend = 0, frame = 0
 414              		@ frame_needed = 0, uses_anonymous_args = 0
 208:Src/usbd_conf.c ****   /* Inform USB library that core enters in suspend Mode. */
 415              		.loc 1 208 1 is_stmt 0 view .LVU70
 416 0000 10B5     		push	{r4, lr}
 417              	.LCFI9:
 418              		.cfi_def_cfa_offset 8
 419              		.cfi_offset 4, -8
 420              		.cfi_offset 14, -4
 421 0002 0400     		movs	r4, r0
 210:Src/usbd_conf.c ****   /* Enter in STOP mode. */
 422              		.loc 1 210 3 is_stmt 1 view .LVU71
 210:Src/usbd_conf.c ****   /* Enter in STOP mode. */
 423              		.loc 1 210 44 is_stmt 0 view .LVU72
 424 0004 8723     		movs	r3, #135
 425 0006 9B00     		lsls	r3, r3, #2
 426 0008 C058     		ldr	r0, [r0, r3]
 427              	.LVL35:
 210:Src/usbd_conf.c ****   /* Enter in STOP mode. */
 428              		.loc 1 210 3 view .LVU73
 429 000a FFF7FEFF 		bl	USBD_LL_Suspend
 430              	.LVL36:
 213:Src/usbd_conf.c ****   {
 431              		.loc 1 213 3 is_stmt 1 view .LVU74
 213:Src/usbd_conf.c ****   {
 432              		.loc 1 213 17 is_stmt 0 view .LVU75
 433 000e A369     		ldr	r3, [r4, #24]
 213:Src/usbd_conf.c ****   {
 434              		.loc 1 213 6 view .LVU76
 435 0010 002B     		cmp	r3, #0
 436 0012 04D0     		beq	.L17
 216:Src/usbd_conf.c ****   }
 437              		.loc 1 216 5 is_stmt 1 view .LVU77
 216:Src/usbd_conf.c ****   }
 438              		.loc 1 216 14 is_stmt 0 view .LVU78
 439 0014 024A     		ldr	r2, .L19
ARM GAS  /tmp/cc0XYibz.s 			page 23


 440 0016 1369     		ldr	r3, [r2, #16]
 441 0018 0621     		movs	r1, #6
 442 001a 0B43     		orrs	r3, r1
 443 001c 1361     		str	r3, [r2, #16]
 444              	.L17:
 219:Src/usbd_conf.c **** 
 445              		.loc 1 219 1 view .LVU79
 446              		@ sp needed
 447              	.LVL37:
 219:Src/usbd_conf.c **** 
 448              		.loc 1 219 1 view .LVU80
 449 001e 10BD     		pop	{r4, pc}
 450              	.L20:
 451              		.align	2
 452              	.L19:
 453 0020 00ED00E0 		.word	-536810240
 454              		.cfi_endproc
 455              	.LFE44:
 457              		.section	.text.HAL_PCD_ResumeCallback,"ax",%progbits
 458              		.align	1
 459              		.global	HAL_PCD_ResumeCallback
 460              		.syntax unified
 461              		.code	16
 462              		.thumb_func
 463              		.fpu softvfp
 465              	HAL_PCD_ResumeCallback:
 466              	.LVL38:
 467              	.LFB45:
 228:Src/usbd_conf.c ****   /* USER CODE BEGIN 3 */
 468              		.loc 1 228 1 is_stmt 1 view -0
 469              		.cfi_startproc
 470              		@ args = 0, pretend = 0, frame = 0
 471              		@ frame_needed = 0, uses_anonymous_args = 0
 228:Src/usbd_conf.c ****   /* USER CODE BEGIN 3 */
 472              		.loc 1 228 1 is_stmt 0 view .LVU82
 473 0000 10B5     		push	{r4, lr}
 474              	.LCFI10:
 475              		.cfi_def_cfa_offset 8
 476              		.cfi_offset 4, -8
 477              		.cfi_offset 14, -4
 478 0002 0400     		movs	r4, r0
 230:Src/usbd_conf.c ****   {
 479              		.loc 1 230 3 is_stmt 1 view .LVU83
 230:Src/usbd_conf.c ****   {
 480              		.loc 1 230 6 is_stmt 0 view .LVU84
 481 0004 8369     		ldr	r3, [r0, #24]
 482 0006 002B     		cmp	r3, #0
 483 0008 05D1     		bne	.L23
 484              	.LVL39:
 485              	.L22:
 237:Src/usbd_conf.c **** }
 486              		.loc 1 237 3 is_stmt 1 view .LVU85
 237:Src/usbd_conf.c **** }
 487              		.loc 1 237 43 is_stmt 0 view .LVU86
 488 000a 8723     		movs	r3, #135
 489 000c 9B00     		lsls	r3, r3, #2
 490 000e E058     		ldr	r0, [r4, r3]
ARM GAS  /tmp/cc0XYibz.s 			page 24


 237:Src/usbd_conf.c **** }
 491              		.loc 1 237 3 view .LVU87
 492 0010 FFF7FEFF 		bl	USBD_LL_Resume
 493              	.LVL40:
 238:Src/usbd_conf.c **** 
 494              		.loc 1 238 1 view .LVU88
 495              		@ sp needed
 496              	.LVL41:
 238:Src/usbd_conf.c **** 
 497              		.loc 1 238 1 view .LVU89
 498 0014 10BD     		pop	{r4, pc}
 499              	.LVL42:
 500              	.L23:
 233:Src/usbd_conf.c ****     SystemClockConfig_Resume();
 501              		.loc 1 233 5 is_stmt 1 view .LVU90
 233:Src/usbd_conf.c ****     SystemClockConfig_Resume();
 502              		.loc 1 233 14 is_stmt 0 view .LVU91
 503 0016 044A     		ldr	r2, .L24
 504 0018 1369     		ldr	r3, [r2, #16]
 505 001a 0621     		movs	r1, #6
 506 001c 8B43     		bics	r3, r1
 507 001e 1361     		str	r3, [r2, #16]
 234:Src/usbd_conf.c ****   }
 508              		.loc 1 234 5 is_stmt 1 view .LVU92
 509 0020 FFF7FEFF 		bl	SystemClockConfig_Resume
 510              	.LVL43:
 234:Src/usbd_conf.c ****   }
 511              		.loc 1 234 5 is_stmt 0 view .LVU93
 512 0024 F1E7     		b	.L22
 513              	.L25:
 514 0026 C046     		.align	2
 515              	.L24:
 516 0028 00ED00E0 		.word	-536810240
 517              		.cfi_endproc
 518              	.LFE45:
 520              		.section	.text.HAL_PCD_ISOOUTIncompleteCallback,"ax",%progbits
 521              		.align	1
 522              		.global	HAL_PCD_ISOOUTIncompleteCallback
 523              		.syntax unified
 524              		.code	16
 525              		.thumb_func
 526              		.fpu softvfp
 528              	HAL_PCD_ISOOUTIncompleteCallback:
 529              	.LVL44:
 530              	.LFB46:
 247:Src/usbd_conf.c ****   USBD_LL_IsoOUTIncomplete((USBD_HandleTypeDef*)hpcd->pData, epnum);
 531              		.loc 1 247 1 is_stmt 1 view -0
 532              		.cfi_startproc
 533              		@ args = 0, pretend = 0, frame = 0
 534              		@ frame_needed = 0, uses_anonymous_args = 0
 247:Src/usbd_conf.c ****   USBD_LL_IsoOUTIncomplete((USBD_HandleTypeDef*)hpcd->pData, epnum);
 535              		.loc 1 247 1 is_stmt 0 view .LVU95
 536 0000 10B5     		push	{r4, lr}
 537              	.LCFI11:
 538              		.cfi_def_cfa_offset 8
 539              		.cfi_offset 4, -8
 540              		.cfi_offset 14, -4
ARM GAS  /tmp/cc0XYibz.s 			page 25


 248:Src/usbd_conf.c **** }
 541              		.loc 1 248 3 is_stmt 1 view .LVU96
 248:Src/usbd_conf.c **** }
 542              		.loc 1 248 53 is_stmt 0 view .LVU97
 543 0002 8723     		movs	r3, #135
 544 0004 9B00     		lsls	r3, r3, #2
 545 0006 C058     		ldr	r0, [r0, r3]
 546              	.LVL45:
 248:Src/usbd_conf.c **** }
 547              		.loc 1 248 3 view .LVU98
 548 0008 FFF7FEFF 		bl	USBD_LL_IsoOUTIncomplete
 549              	.LVL46:
 249:Src/usbd_conf.c **** 
 550              		.loc 1 249 1 view .LVU99
 551              		@ sp needed
 552 000c 10BD     		pop	{r4, pc}
 553              		.cfi_endproc
 554              	.LFE46:
 556              		.section	.text.HAL_PCD_ISOINIncompleteCallback,"ax",%progbits
 557              		.align	1
 558              		.global	HAL_PCD_ISOINIncompleteCallback
 559              		.syntax unified
 560              		.code	16
 561              		.thumb_func
 562              		.fpu softvfp
 564              	HAL_PCD_ISOINIncompleteCallback:
 565              	.LVL47:
 566              	.LFB47:
 258:Src/usbd_conf.c ****   USBD_LL_IsoINIncomplete((USBD_HandleTypeDef*)hpcd->pData, epnum);
 567              		.loc 1 258 1 is_stmt 1 view -0
 568              		.cfi_startproc
 569              		@ args = 0, pretend = 0, frame = 0
 570              		@ frame_needed = 0, uses_anonymous_args = 0
 258:Src/usbd_conf.c ****   USBD_LL_IsoINIncomplete((USBD_HandleTypeDef*)hpcd->pData, epnum);
 571              		.loc 1 258 1 is_stmt 0 view .LVU101
 572 0000 10B5     		push	{r4, lr}
 573              	.LCFI12:
 574              		.cfi_def_cfa_offset 8
 575              		.cfi_offset 4, -8
 576              		.cfi_offset 14, -4
 259:Src/usbd_conf.c **** }
 577              		.loc 1 259 3 is_stmt 1 view .LVU102
 259:Src/usbd_conf.c **** }
 578              		.loc 1 259 52 is_stmt 0 view .LVU103
 579 0002 8723     		movs	r3, #135
 580 0004 9B00     		lsls	r3, r3, #2
 581 0006 C058     		ldr	r0, [r0, r3]
 582              	.LVL48:
 259:Src/usbd_conf.c **** }
 583              		.loc 1 259 3 view .LVU104
 584 0008 FFF7FEFF 		bl	USBD_LL_IsoINIncomplete
 585              	.LVL49:
 260:Src/usbd_conf.c **** 
 586              		.loc 1 260 1 view .LVU105
 587              		@ sp needed
 588 000c 10BD     		pop	{r4, pc}
 589              		.cfi_endproc
ARM GAS  /tmp/cc0XYibz.s 			page 26


 590              	.LFE47:
 592              		.section	.text.HAL_PCD_ConnectCallback,"ax",%progbits
 593              		.align	1
 594              		.global	HAL_PCD_ConnectCallback
 595              		.syntax unified
 596              		.code	16
 597              		.thumb_func
 598              		.fpu softvfp
 600              	HAL_PCD_ConnectCallback:
 601              	.LVL50:
 602              	.LFB48:
 268:Src/usbd_conf.c ****   USBD_LL_DevConnected((USBD_HandleTypeDef*)hpcd->pData);
 603              		.loc 1 268 1 is_stmt 1 view -0
 604              		.cfi_startproc
 605              		@ args = 0, pretend = 0, frame = 0
 606              		@ frame_needed = 0, uses_anonymous_args = 0
 268:Src/usbd_conf.c ****   USBD_LL_DevConnected((USBD_HandleTypeDef*)hpcd->pData);
 607              		.loc 1 268 1 is_stmt 0 view .LVU107
 608 0000 10B5     		push	{r4, lr}
 609              	.LCFI13:
 610              		.cfi_def_cfa_offset 8
 611              		.cfi_offset 4, -8
 612              		.cfi_offset 14, -4
 269:Src/usbd_conf.c **** }
 613              		.loc 1 269 3 is_stmt 1 view .LVU108
 269:Src/usbd_conf.c **** }
 614              		.loc 1 269 49 is_stmt 0 view .LVU109
 615 0002 8723     		movs	r3, #135
 616 0004 9B00     		lsls	r3, r3, #2
 617 0006 C058     		ldr	r0, [r0, r3]
 618              	.LVL51:
 269:Src/usbd_conf.c **** }
 619              		.loc 1 269 3 view .LVU110
 620 0008 FFF7FEFF 		bl	USBD_LL_DevConnected
 621              	.LVL52:
 270:Src/usbd_conf.c **** 
 622              		.loc 1 270 1 view .LVU111
 623              		@ sp needed
 624 000c 10BD     		pop	{r4, pc}
 625              		.cfi_endproc
 626              	.LFE48:
 628              		.section	.text.HAL_PCD_DisconnectCallback,"ax",%progbits
 629              		.align	1
 630              		.global	HAL_PCD_DisconnectCallback
 631              		.syntax unified
 632              		.code	16
 633              		.thumb_func
 634              		.fpu softvfp
 636              	HAL_PCD_DisconnectCallback:
 637              	.LVL53:
 638              	.LFB49:
 278:Src/usbd_conf.c ****   USBD_LL_DevDisconnected((USBD_HandleTypeDef*)hpcd->pData);
 639              		.loc 1 278 1 is_stmt 1 view -0
 640              		.cfi_startproc
 641              		@ args = 0, pretend = 0, frame = 0
 642              		@ frame_needed = 0, uses_anonymous_args = 0
 278:Src/usbd_conf.c ****   USBD_LL_DevDisconnected((USBD_HandleTypeDef*)hpcd->pData);
ARM GAS  /tmp/cc0XYibz.s 			page 27


 643              		.loc 1 278 1 is_stmt 0 view .LVU113
 644 0000 10B5     		push	{r4, lr}
 645              	.LCFI14:
 646              		.cfi_def_cfa_offset 8
 647              		.cfi_offset 4, -8
 648              		.cfi_offset 14, -4
 279:Src/usbd_conf.c **** }
 649              		.loc 1 279 3 is_stmt 1 view .LVU114
 279:Src/usbd_conf.c **** }
 650              		.loc 1 279 52 is_stmt 0 view .LVU115
 651 0002 8723     		movs	r3, #135
 652 0004 9B00     		lsls	r3, r3, #2
 653 0006 C058     		ldr	r0, [r0, r3]
 654              	.LVL54:
 279:Src/usbd_conf.c **** }
 655              		.loc 1 279 3 view .LVU116
 656 0008 FFF7FEFF 		bl	USBD_LL_DevDisconnected
 657              	.LVL55:
 280:Src/usbd_conf.c **** 
 658              		.loc 1 280 1 view .LVU117
 659              		@ sp needed
 660 000c 10BD     		pop	{r4, pc}
 661              		.cfi_endproc
 662              	.LFE49:
 664              		.section	.text.USBD_LL_Init,"ax",%progbits
 665              		.align	1
 666              		.global	USBD_LL_Init
 667              		.syntax unified
 668              		.code	16
 669              		.thumb_func
 670              		.fpu softvfp
 672              	USBD_LL_Init:
 673              	.LVL56:
 674              	.LFB50:
 292:Src/usbd_conf.c ****   /* Init USB Ip. */
 675              		.loc 1 292 1 is_stmt 1 view -0
 676              		.cfi_startproc
 677              		@ args = 0, pretend = 0, frame = 0
 678              		@ frame_needed = 0, uses_anonymous_args = 0
 292:Src/usbd_conf.c ****   /* Init USB Ip. */
 679              		.loc 1 292 1 is_stmt 0 view .LVU119
 680 0000 70B5     		push	{r4, r5, r6, lr}
 681              	.LCFI15:
 682              		.cfi_def_cfa_offset 16
 683              		.cfi_offset 4, -16
 684              		.cfi_offset 5, -12
 685              		.cfi_offset 6, -8
 686              		.cfi_offset 14, -4
 687 0002 0400     		movs	r4, r0
 295:Src/usbd_conf.c ****   pdev->pData = &hpcd_USB_FS;
 688              		.loc 1 295 3 is_stmt 1 view .LVU120
 295:Src/usbd_conf.c ****   pdev->pData = &hpcd_USB_FS;
 689              		.loc 1 295 21 is_stmt 0 view .LVU121
 690 0004 1E48     		ldr	r0, .L33
 691              	.LVL57:
 295:Src/usbd_conf.c ****   pdev->pData = &hpcd_USB_FS;
 692              		.loc 1 295 21 view .LVU122
ARM GAS  /tmp/cc0XYibz.s 			page 28


 693 0006 8723     		movs	r3, #135
 694 0008 9B00     		lsls	r3, r3, #2
 695 000a C450     		str	r4, [r0, r3]
 296:Src/usbd_conf.c **** 
 696              		.loc 1 296 3 is_stmt 1 view .LVU123
 296:Src/usbd_conf.c **** 
 697              		.loc 1 296 15 is_stmt 0 view .LVU124
 698 000c 0433     		adds	r3, r3, #4
 699 000e E050     		str	r0, [r4, r3]
 298:Src/usbd_conf.c ****   hpcd_USB_FS.Init.dev_endpoints = 8;
 700              		.loc 1 298 3 is_stmt 1 view .LVU125
 298:Src/usbd_conf.c ****   hpcd_USB_FS.Init.dev_endpoints = 8;
 701              		.loc 1 298 24 is_stmt 0 view .LVU126
 702 0010 1C4B     		ldr	r3, .L33+4
 703 0012 0360     		str	r3, [r0]
 299:Src/usbd_conf.c ****   hpcd_USB_FS.Init.speed = PCD_SPEED_FULL;
 704              		.loc 1 299 3 is_stmt 1 view .LVU127
 299:Src/usbd_conf.c ****   hpcd_USB_FS.Init.speed = PCD_SPEED_FULL;
 705              		.loc 1 299 34 is_stmt 0 view .LVU128
 706 0014 0823     		movs	r3, #8
 707 0016 4360     		str	r3, [r0, #4]
 300:Src/usbd_conf.c ****   hpcd_USB_FS.Init.ep0_mps = DEP0CTL_MPS_64;
 708              		.loc 1 300 3 is_stmt 1 view .LVU129
 300:Src/usbd_conf.c ****   hpcd_USB_FS.Init.ep0_mps = DEP0CTL_MPS_64;
 709              		.loc 1 300 26 is_stmt 0 view .LVU130
 710 0018 0222     		movs	r2, #2
 711 001a 8260     		str	r2, [r0, #8]
 301:Src/usbd_conf.c ****   hpcd_USB_FS.Init.phy_itface = PCD_PHY_EMBEDDED;
 712              		.loc 1 301 3 is_stmt 1 view .LVU131
 301:Src/usbd_conf.c ****   hpcd_USB_FS.Init.phy_itface = PCD_PHY_EMBEDDED;
 713              		.loc 1 301 28 is_stmt 0 view .LVU132
 714 001c 0023     		movs	r3, #0
 715 001e C360     		str	r3, [r0, #12]
 302:Src/usbd_conf.c ****   hpcd_USB_FS.Init.low_power_enable = DISABLE;
 716              		.loc 1 302 3 is_stmt 1 view .LVU133
 302:Src/usbd_conf.c ****   hpcd_USB_FS.Init.low_power_enable = DISABLE;
 717              		.loc 1 302 31 is_stmt 0 view .LVU134
 718 0020 0261     		str	r2, [r0, #16]
 303:Src/usbd_conf.c ****   hpcd_USB_FS.Init.lpm_enable = DISABLE;
 719              		.loc 1 303 3 is_stmt 1 view .LVU135
 303:Src/usbd_conf.c ****   hpcd_USB_FS.Init.lpm_enable = DISABLE;
 720              		.loc 1 303 37 is_stmt 0 view .LVU136
 721 0022 8361     		str	r3, [r0, #24]
 304:Src/usbd_conf.c ****   hpcd_USB_FS.Init.battery_charging_enable = DISABLE;
 722              		.loc 1 304 3 is_stmt 1 view .LVU137
 304:Src/usbd_conf.c ****   hpcd_USB_FS.Init.battery_charging_enable = DISABLE;
 723              		.loc 1 304 31 is_stmt 0 view .LVU138
 724 0024 C361     		str	r3, [r0, #28]
 305:Src/usbd_conf.c ****   if (HAL_PCD_Init(&hpcd_USB_FS) != HAL_OK)
 725              		.loc 1 305 3 is_stmt 1 view .LVU139
 305:Src/usbd_conf.c ****   if (HAL_PCD_Init(&hpcd_USB_FS) != HAL_OK)
 726              		.loc 1 305 44 is_stmt 0 view .LVU140
 727 0026 0362     		str	r3, [r0, #32]
 306:Src/usbd_conf.c ****   {
 728              		.loc 1 306 3 is_stmt 1 view .LVU141
 306:Src/usbd_conf.c ****   {
 729              		.loc 1 306 7 is_stmt 0 view .LVU142
ARM GAS  /tmp/cc0XYibz.s 			page 29


 730 0028 FFF7FEFF 		bl	HAL_PCD_Init
 731              	.LVL58:
 306:Src/usbd_conf.c ****   {
 732              		.loc 1 306 6 view .LVU143
 733 002c 0028     		cmp	r0, #0
 734 002e 23D1     		bne	.L32
 735              	.L31:
 311:Src/usbd_conf.c ****   HAL_PCDEx_PMAConfig((PCD_HandleTypeDef*)pdev->pData , 0x80 , PCD_SNG_BUF, 0x58);
 736              		.loc 1 311 3 is_stmt 1 view .LVU144
 311:Src/usbd_conf.c ****   HAL_PCDEx_PMAConfig((PCD_HandleTypeDef*)pdev->pData , 0x80 , PCD_SNG_BUF, 0x58);
 737              		.loc 1 311 47 is_stmt 0 view .LVU145
 738 0030 8825     		movs	r5, #136
 739 0032 AD00     		lsls	r5, r5, #2
 311:Src/usbd_conf.c ****   HAL_PCDEx_PMAConfig((PCD_HandleTypeDef*)pdev->pData , 0x80 , PCD_SNG_BUF, 0x58);
 740              		.loc 1 311 3 view .LVU146
 741 0034 1823     		movs	r3, #24
 742 0036 0022     		movs	r2, #0
 743 0038 0021     		movs	r1, #0
 744 003a 6059     		ldr	r0, [r4, r5]
 745 003c FFF7FEFF 		bl	HAL_PCDEx_PMAConfig
 746              	.LVL59:
 312:Src/usbd_conf.c ****   HAL_PCDEx_PMAConfig((PCD_HandleTypeDef*)pdev->pData , 0x81 , PCD_SNG_BUF, 0xC0);
 747              		.loc 1 312 3 is_stmt 1 view .LVU147
 748 0040 5823     		movs	r3, #88
 749 0042 0022     		movs	r2, #0
 750 0044 8021     		movs	r1, #128
 751 0046 6059     		ldr	r0, [r4, r5]
 752 0048 FFF7FEFF 		bl	HAL_PCDEx_PMAConfig
 753              	.LVL60:
 313:Src/usbd_conf.c ****   HAL_PCDEx_PMAConfig((PCD_HandleTypeDef*)pdev->pData , 0x01 , PCD_SNG_BUF, 0x110);
 754              		.loc 1 313 3 view .LVU148
 755 004c C023     		movs	r3, #192
 756 004e 0022     		movs	r2, #0
 757 0050 8121     		movs	r1, #129
 758 0052 6059     		ldr	r0, [r4, r5]
 759 0054 FFF7FEFF 		bl	HAL_PCDEx_PMAConfig
 760              	.LVL61:
 314:Src/usbd_conf.c ****   HAL_PCDEx_PMAConfig((PCD_HandleTypeDef*)pdev->pData , 0x82 , PCD_SNG_BUF, 0x100);
 761              		.loc 1 314 3 view .LVU149
 762 0058 8823     		movs	r3, #136
 763 005a 5B00     		lsls	r3, r3, #1
 764 005c 0022     		movs	r2, #0
 765 005e 0121     		movs	r1, #1
 766 0060 6059     		ldr	r0, [r4, r5]
 767 0062 FFF7FEFF 		bl	HAL_PCDEx_PMAConfig
 768              	.LVL62:
 315:Src/usbd_conf.c ****   return USBD_OK;
 769              		.loc 1 315 3 view .LVU150
 315:Src/usbd_conf.c ****   return USBD_OK;
 770              		.loc 1 315 47 is_stmt 0 view .LVU151
 771 0066 6059     		ldr	r0, [r4, r5]
 315:Src/usbd_conf.c ****   return USBD_OK;
 772              		.loc 1 315 3 view .LVU152
 773 0068 8023     		movs	r3, #128
 774 006a 5B00     		lsls	r3, r3, #1
 775 006c 0022     		movs	r2, #0
 776 006e 8221     		movs	r1, #130
ARM GAS  /tmp/cc0XYibz.s 			page 30


 777 0070 FFF7FEFF 		bl	HAL_PCDEx_PMAConfig
 778              	.LVL63:
 316:Src/usbd_conf.c **** }
 779              		.loc 1 316 3 is_stmt 1 view .LVU153
 317:Src/usbd_conf.c **** 
 780              		.loc 1 317 1 is_stmt 0 view .LVU154
 781 0074 0020     		movs	r0, #0
 782              		@ sp needed
 783              	.LVL64:
 317:Src/usbd_conf.c **** 
 784              		.loc 1 317 1 view .LVU155
 785 0076 70BD     		pop	{r4, r5, r6, pc}
 786              	.LVL65:
 787              	.L32:
 308:Src/usbd_conf.c ****   }
 788              		.loc 1 308 5 is_stmt 1 view .LVU156
 789 0078 FFF7FEFF 		bl	Error_Handler
 790              	.LVL66:
 791 007c D8E7     		b	.L31
 792              	.L34:
 793 007e C046     		.align	2
 794              	.L33:
 795 0080 00000000 		.word	hpcd_USB_FS
 796 0084 005C0040 		.word	1073765376
 797              		.cfi_endproc
 798              	.LFE50:
 800              		.section	.text.USBD_LL_DeInit,"ax",%progbits
 801              		.align	1
 802              		.global	USBD_LL_DeInit
 803              		.syntax unified
 804              		.code	16
 805              		.thumb_func
 806              		.fpu softvfp
 808              	USBD_LL_DeInit:
 809              	.LVL67:
 810              	.LFB51:
 325:Src/usbd_conf.c ****   HAL_StatusTypeDef hal_status = HAL_OK;
 811              		.loc 1 325 1 view -0
 812              		.cfi_startproc
 813              		@ args = 0, pretend = 0, frame = 0
 814              		@ frame_needed = 0, uses_anonymous_args = 0
 325:Src/usbd_conf.c ****   HAL_StatusTypeDef hal_status = HAL_OK;
 815              		.loc 1 325 1 is_stmt 0 view .LVU158
 816 0000 10B5     		push	{r4, lr}
 817              	.LCFI16:
 818              		.cfi_def_cfa_offset 8
 819              		.cfi_offset 4, -8
 820              		.cfi_offset 14, -4
 326:Src/usbd_conf.c ****   USBD_StatusTypeDef usb_status = USBD_OK;
 821              		.loc 1 326 3 is_stmt 1 view .LVU159
 822              	.LVL68:
 327:Src/usbd_conf.c **** 
 823              		.loc 1 327 3 view .LVU160
 329:Src/usbd_conf.c **** 
 824              		.loc 1 329 3 view .LVU161
 329:Src/usbd_conf.c **** 
 825              		.loc 1 329 35 is_stmt 0 view .LVU162
ARM GAS  /tmp/cc0XYibz.s 			page 31


 826 0002 8823     		movs	r3, #136
 827 0004 9B00     		lsls	r3, r3, #2
 828 0006 C058     		ldr	r0, [r0, r3]
 829              	.LVL69:
 329:Src/usbd_conf.c **** 
 830              		.loc 1 329 16 view .LVU163
 831 0008 FFF7FEFF 		bl	HAL_PCD_DeInit
 832              	.LVL70:
 331:Src/usbd_conf.c ****     case HAL_OK :
 833              		.loc 1 331 3 is_stmt 1 view .LVU164
 834 000c 0128     		cmp	r0, #1
 835 000e 06D0     		beq	.L37
 836 0010 43B2     		sxtb	r3, r0
 837 0012 002B     		cmp	r3, #0
 838 0014 02D0     		beq	.L36
 839 0016 0228     		cmp	r0, #2
 840 0018 03D0     		beq	.L38
 342:Src/usbd_conf.c ****     break;
 841              		.loc 1 342 18 is_stmt 0 view .LVU165
 842 001a 0220     		movs	r0, #2
 843              	.LVL71:
 844              	.L36:
 348:Src/usbd_conf.c **** }
 845              		.loc 1 348 3 is_stmt 1 view .LVU166
 349:Src/usbd_conf.c **** 
 846              		.loc 1 349 1 is_stmt 0 view .LVU167
 847              		@ sp needed
 848 001c 10BD     		pop	{r4, pc}
 849              	.LVL72:
 850              	.L37:
 336:Src/usbd_conf.c ****     break;
 851              		.loc 1 336 18 view .LVU168
 852 001e 0220     		movs	r0, #2
 853              	.LVL73:
 336:Src/usbd_conf.c ****     break;
 854              		.loc 1 336 18 view .LVU169
 855 0020 FCE7     		b	.L36
 856              	.LVL74:
 857              	.L38:
 339:Src/usbd_conf.c ****     break;
 858              		.loc 1 339 18 view .LVU170
 859 0022 0120     		movs	r0, #1
 860              	.LVL75:
 339:Src/usbd_conf.c ****     break;
 861              		.loc 1 339 18 view .LVU171
 862 0024 FAE7     		b	.L36
 863              		.cfi_endproc
 864              	.LFE51:
 866              		.section	.text.USBD_LL_Start,"ax",%progbits
 867              		.align	1
 868              		.global	USBD_LL_Start
 869              		.syntax unified
 870              		.code	16
 871              		.thumb_func
 872              		.fpu softvfp
 874              	USBD_LL_Start:
 875              	.LVL76:
ARM GAS  /tmp/cc0XYibz.s 			page 32


 876              	.LFB52:
 357:Src/usbd_conf.c ****   HAL_StatusTypeDef hal_status = HAL_OK;
 877              		.loc 1 357 1 is_stmt 1 view -0
 878              		.cfi_startproc
 879              		@ args = 0, pretend = 0, frame = 0
 880              		@ frame_needed = 0, uses_anonymous_args = 0
 357:Src/usbd_conf.c ****   HAL_StatusTypeDef hal_status = HAL_OK;
 881              		.loc 1 357 1 is_stmt 0 view .LVU173
 882 0000 10B5     		push	{r4, lr}
 883              	.LCFI17:
 884              		.cfi_def_cfa_offset 8
 885              		.cfi_offset 4, -8
 886              		.cfi_offset 14, -4
 358:Src/usbd_conf.c ****   USBD_StatusTypeDef usb_status = USBD_OK;
 887              		.loc 1 358 3 is_stmt 1 view .LVU174
 888              	.LVL77:
 359:Src/usbd_conf.c ****  
 889              		.loc 1 359 3 view .LVU175
 361:Src/usbd_conf.c ****      
 890              		.loc 1 361 3 view .LVU176
 361:Src/usbd_conf.c ****      
 891              		.loc 1 361 34 is_stmt 0 view .LVU177
 892 0002 8823     		movs	r3, #136
 893 0004 9B00     		lsls	r3, r3, #2
 894 0006 C058     		ldr	r0, [r0, r3]
 895              	.LVL78:
 361:Src/usbd_conf.c ****      
 896              		.loc 1 361 16 view .LVU178
 897 0008 FFF7FEFF 		bl	HAL_PCD_Start
 898              	.LVL79:
 363:Src/usbd_conf.c ****     case HAL_OK :
 899              		.loc 1 363 3 is_stmt 1 view .LVU179
 900 000c 0128     		cmp	r0, #1
 901 000e 06D0     		beq	.L41
 902 0010 43B2     		sxtb	r3, r0
 903 0012 002B     		cmp	r3, #0
 904 0014 02D0     		beq	.L40
 905 0016 0228     		cmp	r0, #2
 906 0018 03D0     		beq	.L42
 374:Src/usbd_conf.c ****     break;
 907              		.loc 1 374 18 is_stmt 0 view .LVU180
 908 001a 0220     		movs	r0, #2
 909              	.LVL80:
 910              	.L40:
 380:Src/usbd_conf.c **** }
 911              		.loc 1 380 3 is_stmt 1 view .LVU181
 381:Src/usbd_conf.c **** 
 912              		.loc 1 381 1 is_stmt 0 view .LVU182
 913              		@ sp needed
 914 001c 10BD     		pop	{r4, pc}
 915              	.LVL81:
 916              	.L41:
 368:Src/usbd_conf.c ****     break;
 917              		.loc 1 368 18 view .LVU183
 918 001e 0220     		movs	r0, #2
 919              	.LVL82:
 368:Src/usbd_conf.c ****     break;
ARM GAS  /tmp/cc0XYibz.s 			page 33


 920              		.loc 1 368 18 view .LVU184
 921 0020 FCE7     		b	.L40
 922              	.LVL83:
 923              	.L42:
 371:Src/usbd_conf.c ****     break;
 924              		.loc 1 371 18 view .LVU185
 925 0022 0120     		movs	r0, #1
 926              	.LVL84:
 371:Src/usbd_conf.c ****     break;
 927              		.loc 1 371 18 view .LVU186
 928 0024 FAE7     		b	.L40
 929              		.cfi_endproc
 930              	.LFE52:
 932              		.section	.text.USBD_LL_Stop,"ax",%progbits
 933              		.align	1
 934              		.global	USBD_LL_Stop
 935              		.syntax unified
 936              		.code	16
 937              		.thumb_func
 938              		.fpu softvfp
 940              	USBD_LL_Stop:
 941              	.LVL85:
 942              	.LFB53:
 389:Src/usbd_conf.c ****   HAL_StatusTypeDef hal_status = HAL_OK;
 943              		.loc 1 389 1 is_stmt 1 view -0
 944              		.cfi_startproc
 945              		@ args = 0, pretend = 0, frame = 0
 946              		@ frame_needed = 0, uses_anonymous_args = 0
 389:Src/usbd_conf.c ****   HAL_StatusTypeDef hal_status = HAL_OK;
 947              		.loc 1 389 1 is_stmt 0 view .LVU188
 948 0000 10B5     		push	{r4, lr}
 949              	.LCFI18:
 950              		.cfi_def_cfa_offset 8
 951              		.cfi_offset 4, -8
 952              		.cfi_offset 14, -4
 390:Src/usbd_conf.c ****   USBD_StatusTypeDef usb_status = USBD_OK;
 953              		.loc 1 390 3 is_stmt 1 view .LVU189
 954              	.LVL86:
 391:Src/usbd_conf.c **** 
 955              		.loc 1 391 3 view .LVU190
 393:Src/usbd_conf.c **** 
 956              		.loc 1 393 3 view .LVU191
 393:Src/usbd_conf.c **** 
 957              		.loc 1 393 33 is_stmt 0 view .LVU192
 958 0002 8823     		movs	r3, #136
 959 0004 9B00     		lsls	r3, r3, #2
 960 0006 C058     		ldr	r0, [r0, r3]
 961              	.LVL87:
 393:Src/usbd_conf.c **** 
 962              		.loc 1 393 16 view .LVU193
 963 0008 FFF7FEFF 		bl	HAL_PCD_Stop
 964              	.LVL88:
 395:Src/usbd_conf.c ****     case HAL_OK :
 965              		.loc 1 395 3 is_stmt 1 view .LVU194
 966 000c 0128     		cmp	r0, #1
 967 000e 06D0     		beq	.L45
 968 0010 43B2     		sxtb	r3, r0
ARM GAS  /tmp/cc0XYibz.s 			page 34


 969 0012 002B     		cmp	r3, #0
 970 0014 02D0     		beq	.L44
 971 0016 0228     		cmp	r0, #2
 972 0018 03D0     		beq	.L46
 406:Src/usbd_conf.c ****     break;
 973              		.loc 1 406 18 is_stmt 0 view .LVU195
 974 001a 0220     		movs	r0, #2
 975              	.LVL89:
 976              	.L44:
 412:Src/usbd_conf.c **** }
 977              		.loc 1 412 3 is_stmt 1 view .LVU196
 413:Src/usbd_conf.c **** 
 978              		.loc 1 413 1 is_stmt 0 view .LVU197
 979              		@ sp needed
 980 001c 10BD     		pop	{r4, pc}
 981              	.LVL90:
 982              	.L45:
 400:Src/usbd_conf.c ****     break;
 983              		.loc 1 400 18 view .LVU198
 984 001e 0220     		movs	r0, #2
 985              	.LVL91:
 400:Src/usbd_conf.c ****     break;
 986              		.loc 1 400 18 view .LVU199
 987 0020 FCE7     		b	.L44
 988              	.LVL92:
 989              	.L46:
 403:Src/usbd_conf.c ****     break;
 990              		.loc 1 403 18 view .LVU200
 991 0022 0120     		movs	r0, #1
 992              	.LVL93:
 403:Src/usbd_conf.c ****     break;
 993              		.loc 1 403 18 view .LVU201
 994 0024 FAE7     		b	.L44
 995              		.cfi_endproc
 996              	.LFE53:
 998              		.section	.text.USBD_LL_OpenEP,"ax",%progbits
 999              		.align	1
 1000              		.global	USBD_LL_OpenEP
 1001              		.syntax unified
 1002              		.code	16
 1003              		.thumb_func
 1004              		.fpu softvfp
 1006              	USBD_LL_OpenEP:
 1007              	.LVL94:
 1008              	.LFB54:
 424:Src/usbd_conf.c ****   HAL_StatusTypeDef hal_status = HAL_OK;
 1009              		.loc 1 424 1 is_stmt 1 view -0
 1010              		.cfi_startproc
 1011              		@ args = 0, pretend = 0, frame = 0
 1012              		@ frame_needed = 0, uses_anonymous_args = 0
 424:Src/usbd_conf.c ****   HAL_StatusTypeDef hal_status = HAL_OK;
 1013              		.loc 1 424 1 is_stmt 0 view .LVU203
 1014 0000 10B5     		push	{r4, lr}
 1015              	.LCFI19:
 1016              		.cfi_def_cfa_offset 8
 1017              		.cfi_offset 4, -8
 1018              		.cfi_offset 14, -4
ARM GAS  /tmp/cc0XYibz.s 			page 35


 1019 0002 1400     		movs	r4, r2
 1020 0004 1A00     		movs	r2, r3
 1021              	.LVL95:
 425:Src/usbd_conf.c ****   USBD_StatusTypeDef usb_status = USBD_OK;
 1022              		.loc 1 425 3 is_stmt 1 view .LVU204
 426:Src/usbd_conf.c **** 
 1023              		.loc 1 426 3 view .LVU205
 428:Src/usbd_conf.c **** 
 1024              		.loc 1 428 3 view .LVU206
 428:Src/usbd_conf.c **** 
 1025              		.loc 1 428 36 is_stmt 0 view .LVU207
 1026 0006 8823     		movs	r3, #136
 1027              	.LVL96:
 428:Src/usbd_conf.c **** 
 1028              		.loc 1 428 36 view .LVU208
 1029 0008 9B00     		lsls	r3, r3, #2
 1030 000a C058     		ldr	r0, [r0, r3]
 1031              	.LVL97:
 428:Src/usbd_conf.c **** 
 1032              		.loc 1 428 16 view .LVU209
 1033 000c 2300     		movs	r3, r4
 1034 000e FFF7FEFF 		bl	HAL_PCD_EP_Open
 1035              	.LVL98:
 430:Src/usbd_conf.c ****     case HAL_OK :
 1036              		.loc 1 430 3 is_stmt 1 view .LVU210
 1037 0012 0128     		cmp	r0, #1
 1038 0014 06D0     		beq	.L49
 1039 0016 43B2     		sxtb	r3, r0
 1040 0018 002B     		cmp	r3, #0
 1041 001a 02D0     		beq	.L48
 1042 001c 0228     		cmp	r0, #2
 1043 001e 03D0     		beq	.L50
 441:Src/usbd_conf.c ****     break;
 1044              		.loc 1 441 18 is_stmt 0 view .LVU211
 1045 0020 0220     		movs	r0, #2
 1046              	.LVL99:
 1047              	.L48:
 447:Src/usbd_conf.c **** }
 1048              		.loc 1 447 3 is_stmt 1 view .LVU212
 448:Src/usbd_conf.c **** 
 1049              		.loc 1 448 1 is_stmt 0 view .LVU213
 1050              		@ sp needed
 1051 0022 10BD     		pop	{r4, pc}
 1052              	.LVL100:
 1053              	.L49:
 435:Src/usbd_conf.c ****     break;
 1054              		.loc 1 435 18 view .LVU214
 1055 0024 0220     		movs	r0, #2
 1056              	.LVL101:
 435:Src/usbd_conf.c ****     break;
 1057              		.loc 1 435 18 view .LVU215
 1058 0026 FCE7     		b	.L48
 1059              	.LVL102:
 1060              	.L50:
 438:Src/usbd_conf.c ****     break;
 1061              		.loc 1 438 18 view .LVU216
 1062 0028 0120     		movs	r0, #1
ARM GAS  /tmp/cc0XYibz.s 			page 36


 1063              	.LVL103:
 438:Src/usbd_conf.c ****     break;
 1064              		.loc 1 438 18 view .LVU217
 1065 002a FAE7     		b	.L48
 1066              		.cfi_endproc
 1067              	.LFE54:
 1069              		.section	.text.USBD_LL_CloseEP,"ax",%progbits
 1070              		.align	1
 1071              		.global	USBD_LL_CloseEP
 1072              		.syntax unified
 1073              		.code	16
 1074              		.thumb_func
 1075              		.fpu softvfp
 1077              	USBD_LL_CloseEP:
 1078              	.LVL104:
 1079              	.LFB55:
 457:Src/usbd_conf.c ****   HAL_StatusTypeDef hal_status = HAL_OK;
 1080              		.loc 1 457 1 is_stmt 1 view -0
 1081              		.cfi_startproc
 1082              		@ args = 0, pretend = 0, frame = 0
 1083              		@ frame_needed = 0, uses_anonymous_args = 0
 457:Src/usbd_conf.c ****   HAL_StatusTypeDef hal_status = HAL_OK;
 1084              		.loc 1 457 1 is_stmt 0 view .LVU219
 1085 0000 10B5     		push	{r4, lr}
 1086              	.LCFI20:
 1087              		.cfi_def_cfa_offset 8
 1088              		.cfi_offset 4, -8
 1089              		.cfi_offset 14, -4
 458:Src/usbd_conf.c ****   USBD_StatusTypeDef usb_status = USBD_OK;
 1090              		.loc 1 458 3 is_stmt 1 view .LVU220
 1091              	.LVL105:
 459:Src/usbd_conf.c ****   
 1092              		.loc 1 459 3 view .LVU221
 461:Src/usbd_conf.c ****       
 1093              		.loc 1 461 3 view .LVU222
 461:Src/usbd_conf.c ****       
 1094              		.loc 1 461 37 is_stmt 0 view .LVU223
 1095 0002 8823     		movs	r3, #136
 1096 0004 9B00     		lsls	r3, r3, #2
 1097 0006 C058     		ldr	r0, [r0, r3]
 1098              	.LVL106:
 461:Src/usbd_conf.c ****       
 1099              		.loc 1 461 16 view .LVU224
 1100 0008 FFF7FEFF 		bl	HAL_PCD_EP_Close
 1101              	.LVL107:
 463:Src/usbd_conf.c ****     case HAL_OK :
 1102              		.loc 1 463 3 is_stmt 1 view .LVU225
 1103 000c 0128     		cmp	r0, #1
 1104 000e 06D0     		beq	.L53
 1105 0010 43B2     		sxtb	r3, r0
 1106 0012 002B     		cmp	r3, #0
 1107 0014 02D0     		beq	.L52
 1108 0016 0228     		cmp	r0, #2
 1109 0018 03D0     		beq	.L54
 474:Src/usbd_conf.c ****     break;
 1110              		.loc 1 474 18 is_stmt 0 view .LVU226
 1111 001a 0220     		movs	r0, #2
ARM GAS  /tmp/cc0XYibz.s 			page 37


 1112              	.LVL108:
 1113              	.L52:
 480:Src/usbd_conf.c **** }
 1114              		.loc 1 480 3 is_stmt 1 view .LVU227
 481:Src/usbd_conf.c **** 
 1115              		.loc 1 481 1 is_stmt 0 view .LVU228
 1116              		@ sp needed
 1117 001c 10BD     		pop	{r4, pc}
 1118              	.LVL109:
 1119              	.L53:
 468:Src/usbd_conf.c ****     break;
 1120              		.loc 1 468 18 view .LVU229
 1121 001e 0220     		movs	r0, #2
 1122              	.LVL110:
 468:Src/usbd_conf.c ****     break;
 1123              		.loc 1 468 18 view .LVU230
 1124 0020 FCE7     		b	.L52
 1125              	.LVL111:
 1126              	.L54:
 471:Src/usbd_conf.c ****     break;
 1127              		.loc 1 471 18 view .LVU231
 1128 0022 0120     		movs	r0, #1
 1129              	.LVL112:
 471:Src/usbd_conf.c ****     break;
 1130              		.loc 1 471 18 view .LVU232
 1131 0024 FAE7     		b	.L52
 1132              		.cfi_endproc
 1133              	.LFE55:
 1135              		.section	.text.USBD_LL_FlushEP,"ax",%progbits
 1136              		.align	1
 1137              		.global	USBD_LL_FlushEP
 1138              		.syntax unified
 1139              		.code	16
 1140              		.thumb_func
 1141              		.fpu softvfp
 1143              	USBD_LL_FlushEP:
 1144              	.LVL113:
 1145              	.LFB56:
 490:Src/usbd_conf.c ****   HAL_StatusTypeDef hal_status = HAL_OK;
 1146              		.loc 1 490 1 is_stmt 1 view -0
 1147              		.cfi_startproc
 1148              		@ args = 0, pretend = 0, frame = 0
 1149              		@ frame_needed = 0, uses_anonymous_args = 0
 490:Src/usbd_conf.c ****   HAL_StatusTypeDef hal_status = HAL_OK;
 1150              		.loc 1 490 1 is_stmt 0 view .LVU234
 1151 0000 10B5     		push	{r4, lr}
 1152              	.LCFI21:
 1153              		.cfi_def_cfa_offset 8
 1154              		.cfi_offset 4, -8
 1155              		.cfi_offset 14, -4
 491:Src/usbd_conf.c ****   USBD_StatusTypeDef usb_status = USBD_OK;
 1156              		.loc 1 491 3 is_stmt 1 view .LVU235
 1157              	.LVL114:
 492:Src/usbd_conf.c ****   
 1158              		.loc 1 492 3 view .LVU236
 494:Src/usbd_conf.c ****       
 1159              		.loc 1 494 3 view .LVU237
ARM GAS  /tmp/cc0XYibz.s 			page 38


 494:Src/usbd_conf.c ****       
 1160              		.loc 1 494 37 is_stmt 0 view .LVU238
 1161 0002 8823     		movs	r3, #136
 1162 0004 9B00     		lsls	r3, r3, #2
 1163 0006 C058     		ldr	r0, [r0, r3]
 1164              	.LVL115:
 494:Src/usbd_conf.c ****       
 1165              		.loc 1 494 16 view .LVU239
 1166 0008 FFF7FEFF 		bl	HAL_PCD_EP_Flush
 1167              	.LVL116:
 496:Src/usbd_conf.c ****     case HAL_OK :
 1168              		.loc 1 496 3 is_stmt 1 view .LVU240
 1169 000c 0128     		cmp	r0, #1
 1170 000e 06D0     		beq	.L57
 1171 0010 43B2     		sxtb	r3, r0
 1172 0012 002B     		cmp	r3, #0
 1173 0014 02D0     		beq	.L56
 1174 0016 0228     		cmp	r0, #2
 1175 0018 03D0     		beq	.L58
 507:Src/usbd_conf.c ****     break;
 1176              		.loc 1 507 18 is_stmt 0 view .LVU241
 1177 001a 0220     		movs	r0, #2
 1178              	.LVL117:
 1179              	.L56:
 513:Src/usbd_conf.c **** }
 1180              		.loc 1 513 3 is_stmt 1 view .LVU242
 514:Src/usbd_conf.c **** 
 1181              		.loc 1 514 1 is_stmt 0 view .LVU243
 1182              		@ sp needed
 1183 001c 10BD     		pop	{r4, pc}
 1184              	.LVL118:
 1185              	.L57:
 501:Src/usbd_conf.c ****     break;
 1186              		.loc 1 501 18 view .LVU244
 1187 001e 0220     		movs	r0, #2
 1188              	.LVL119:
 501:Src/usbd_conf.c ****     break;
 1189              		.loc 1 501 18 view .LVU245
 1190 0020 FCE7     		b	.L56
 1191              	.LVL120:
 1192              	.L58:
 504:Src/usbd_conf.c ****     break;
 1193              		.loc 1 504 18 view .LVU246
 1194 0022 0120     		movs	r0, #1
 1195              	.LVL121:
 504:Src/usbd_conf.c ****     break;
 1196              		.loc 1 504 18 view .LVU247
 1197 0024 FAE7     		b	.L56
 1198              		.cfi_endproc
 1199              	.LFE56:
 1201              		.section	.text.USBD_LL_StallEP,"ax",%progbits
 1202              		.align	1
 1203              		.global	USBD_LL_StallEP
 1204              		.syntax unified
 1205              		.code	16
 1206              		.thumb_func
 1207              		.fpu softvfp
ARM GAS  /tmp/cc0XYibz.s 			page 39


 1209              	USBD_LL_StallEP:
 1210              	.LVL122:
 1211              	.LFB57:
 523:Src/usbd_conf.c ****   HAL_StatusTypeDef hal_status = HAL_OK;
 1212              		.loc 1 523 1 is_stmt 1 view -0
 1213              		.cfi_startproc
 1214              		@ args = 0, pretend = 0, frame = 0
 1215              		@ frame_needed = 0, uses_anonymous_args = 0
 523:Src/usbd_conf.c ****   HAL_StatusTypeDef hal_status = HAL_OK;
 1216              		.loc 1 523 1 is_stmt 0 view .LVU249
 1217 0000 10B5     		push	{r4, lr}
 1218              	.LCFI22:
 1219              		.cfi_def_cfa_offset 8
 1220              		.cfi_offset 4, -8
 1221              		.cfi_offset 14, -4
 524:Src/usbd_conf.c ****   USBD_StatusTypeDef usb_status = USBD_OK;
 1222              		.loc 1 524 3 is_stmt 1 view .LVU250
 1223              	.LVL123:
 525:Src/usbd_conf.c ****   
 1224              		.loc 1 525 3 view .LVU251
 527:Src/usbd_conf.c **** 
 1225              		.loc 1 527 3 view .LVU252
 527:Src/usbd_conf.c **** 
 1226              		.loc 1 527 40 is_stmt 0 view .LVU253
 1227 0002 8823     		movs	r3, #136
 1228 0004 9B00     		lsls	r3, r3, #2
 1229 0006 C058     		ldr	r0, [r0, r3]
 1230              	.LVL124:
 527:Src/usbd_conf.c **** 
 1231              		.loc 1 527 16 view .LVU254
 1232 0008 FFF7FEFF 		bl	HAL_PCD_EP_SetStall
 1233              	.LVL125:
 529:Src/usbd_conf.c ****     case HAL_OK :
 1234              		.loc 1 529 3 is_stmt 1 view .LVU255
 1235 000c 0128     		cmp	r0, #1
 1236 000e 06D0     		beq	.L61
 1237 0010 43B2     		sxtb	r3, r0
 1238 0012 002B     		cmp	r3, #0
 1239 0014 02D0     		beq	.L60
 1240 0016 0228     		cmp	r0, #2
 1241 0018 03D0     		beq	.L62
 540:Src/usbd_conf.c ****     break;
 1242              		.loc 1 540 18 is_stmt 0 view .LVU256
 1243 001a 0220     		movs	r0, #2
 1244              	.LVL126:
 1245              	.L60:
 546:Src/usbd_conf.c **** }
 1246              		.loc 1 546 3 is_stmt 1 view .LVU257
 547:Src/usbd_conf.c **** 
 1247              		.loc 1 547 1 is_stmt 0 view .LVU258
 1248              		@ sp needed
 1249 001c 10BD     		pop	{r4, pc}
 1250              	.LVL127:
 1251              	.L61:
 534:Src/usbd_conf.c ****     break;
 1252              		.loc 1 534 18 view .LVU259
 1253 001e 0220     		movs	r0, #2
ARM GAS  /tmp/cc0XYibz.s 			page 40


 1254              	.LVL128:
 534:Src/usbd_conf.c ****     break;
 1255              		.loc 1 534 18 view .LVU260
 1256 0020 FCE7     		b	.L60
 1257              	.LVL129:
 1258              	.L62:
 537:Src/usbd_conf.c ****     break;
 1259              		.loc 1 537 18 view .LVU261
 1260 0022 0120     		movs	r0, #1
 1261              	.LVL130:
 537:Src/usbd_conf.c ****     break;
 1262              		.loc 1 537 18 view .LVU262
 1263 0024 FAE7     		b	.L60
 1264              		.cfi_endproc
 1265              	.LFE57:
 1267              		.section	.text.USBD_LL_ClearStallEP,"ax",%progbits
 1268              		.align	1
 1269              		.global	USBD_LL_ClearStallEP
 1270              		.syntax unified
 1271              		.code	16
 1272              		.thumb_func
 1273              		.fpu softvfp
 1275              	USBD_LL_ClearStallEP:
 1276              	.LVL131:
 1277              	.LFB58:
 556:Src/usbd_conf.c ****   HAL_StatusTypeDef hal_status = HAL_OK;
 1278              		.loc 1 556 1 is_stmt 1 view -0
 1279              		.cfi_startproc
 1280              		@ args = 0, pretend = 0, frame = 0
 1281              		@ frame_needed = 0, uses_anonymous_args = 0
 556:Src/usbd_conf.c ****   HAL_StatusTypeDef hal_status = HAL_OK;
 1282              		.loc 1 556 1 is_stmt 0 view .LVU264
 1283 0000 10B5     		push	{r4, lr}
 1284              	.LCFI23:
 1285              		.cfi_def_cfa_offset 8
 1286              		.cfi_offset 4, -8
 1287              		.cfi_offset 14, -4
 557:Src/usbd_conf.c ****   USBD_StatusTypeDef usb_status = USBD_OK;
 1288              		.loc 1 557 3 is_stmt 1 view .LVU265
 1289              	.LVL132:
 558:Src/usbd_conf.c ****   
 1290              		.loc 1 558 3 view .LVU266
 560:Src/usbd_conf.c ****      
 1291              		.loc 1 560 3 view .LVU267
 560:Src/usbd_conf.c ****      
 1292              		.loc 1 560 40 is_stmt 0 view .LVU268
 1293 0002 8823     		movs	r3, #136
 1294 0004 9B00     		lsls	r3, r3, #2
 1295 0006 C058     		ldr	r0, [r0, r3]
 1296              	.LVL133:
 560:Src/usbd_conf.c ****      
 1297              		.loc 1 560 16 view .LVU269
 1298 0008 FFF7FEFF 		bl	HAL_PCD_EP_ClrStall
 1299              	.LVL134:
 562:Src/usbd_conf.c ****     case HAL_OK :
 1300              		.loc 1 562 3 is_stmt 1 view .LVU270
 1301 000c 0128     		cmp	r0, #1
ARM GAS  /tmp/cc0XYibz.s 			page 41


 1302 000e 06D0     		beq	.L65
 1303 0010 43B2     		sxtb	r3, r0
 1304 0012 002B     		cmp	r3, #0
 1305 0014 02D0     		beq	.L64
 1306 0016 0228     		cmp	r0, #2
 1307 0018 03D0     		beq	.L66
 573:Src/usbd_conf.c ****     break;
 1308              		.loc 1 573 18 is_stmt 0 view .LVU271
 1309 001a 0220     		movs	r0, #2
 1310              	.LVL135:
 1311              	.L64:
 579:Src/usbd_conf.c **** }
 1312              		.loc 1 579 3 is_stmt 1 view .LVU272
 580:Src/usbd_conf.c **** 
 1313              		.loc 1 580 1 is_stmt 0 view .LVU273
 1314              		@ sp needed
 1315 001c 10BD     		pop	{r4, pc}
 1316              	.LVL136:
 1317              	.L65:
 567:Src/usbd_conf.c ****     break;
 1318              		.loc 1 567 18 view .LVU274
 1319 001e 0220     		movs	r0, #2
 1320              	.LVL137:
 567:Src/usbd_conf.c ****     break;
 1321              		.loc 1 567 18 view .LVU275
 1322 0020 FCE7     		b	.L64
 1323              	.LVL138:
 1324              	.L66:
 570:Src/usbd_conf.c ****     break;
 1325              		.loc 1 570 18 view .LVU276
 1326 0022 0120     		movs	r0, #1
 1327              	.LVL139:
 570:Src/usbd_conf.c ****     break;
 1328              		.loc 1 570 18 view .LVU277
 1329 0024 FAE7     		b	.L64
 1330              		.cfi_endproc
 1331              	.LFE58:
 1333              		.section	.text.USBD_LL_IsStallEP,"ax",%progbits
 1334              		.align	1
 1335              		.global	USBD_LL_IsStallEP
 1336              		.syntax unified
 1337              		.code	16
 1338              		.thumb_func
 1339              		.fpu softvfp
 1341              	USBD_LL_IsStallEP:
 1342              	.LVL140:
 1343              	.LFB59:
 589:Src/usbd_conf.c ****   PCD_HandleTypeDef *hpcd = (PCD_HandleTypeDef*) pdev->pData;
 1344              		.loc 1 589 1 is_stmt 1 view -0
 1345              		.cfi_startproc
 1346              		@ args = 0, pretend = 0, frame = 0
 1347              		@ frame_needed = 0, uses_anonymous_args = 0
 1348              		@ link register save eliminated.
 590:Src/usbd_conf.c ****   
 1349              		.loc 1 590 3 view .LVU279
 590:Src/usbd_conf.c ****   
 1350              		.loc 1 590 22 is_stmt 0 view .LVU280
ARM GAS  /tmp/cc0XYibz.s 			page 42


 1351 0000 8823     		movs	r3, #136
 1352 0002 9B00     		lsls	r3, r3, #2
 1353 0004 C358     		ldr	r3, [r0, r3]
 1354              	.LVL141:
 592:Src/usbd_conf.c ****   {
 1355              		.loc 1 592 3 is_stmt 1 view .LVU281
 592:Src/usbd_conf.c ****   {
 1356              		.loc 1 592 23 is_stmt 0 view .LVU282
 1357 0006 4AB2     		sxtb	r2, r1
 592:Src/usbd_conf.c ****   {
 1358              		.loc 1 592 5 view .LVU283
 1359 0008 002A     		cmp	r2, #0
 1360 000a 09DB     		blt	.L70
 598:Src/usbd_conf.c ****   }
 1361              		.loc 1 598 5 is_stmt 1 view .LVU284
 598:Src/usbd_conf.c ****   }
 1362              		.loc 1 598 33 is_stmt 0 view .LVU285
 1363 000c 7F22     		movs	r2, #127
 1364 000e 1140     		ands	r1, r2
 1365              	.LVL142:
 598:Src/usbd_conf.c ****   }
 1366              		.loc 1 598 40 view .LVU286
 1367 0010 CA00     		lsls	r2, r1, #3
 1368 0012 511A     		subs	r1, r2, r1
 1369 0014 8A00     		lsls	r2, r1, #2
 1370 0016 9B18     		adds	r3, r3, r2
 1371              	.LVL143:
 598:Src/usbd_conf.c ****   }
 1372              		.loc 1 598 40 view .LVU287
 1373 0018 0B33     		adds	r3, r3, #11
 1374 001a FF33     		adds	r3, r3, #255
 1375 001c 1878     		ldrb	r0, [r3]
 1376              	.LVL144:
 1377              	.L69:
 600:Src/usbd_conf.c **** 
 1378              		.loc 1 600 1 view .LVU288
 1379              		@ sp needed
 1380 001e 7047     		bx	lr
 1381              	.LVL145:
 1382              	.L70:
 594:Src/usbd_conf.c ****   }
 1383              		.loc 1 594 5 is_stmt 1 view .LVU289
 594:Src/usbd_conf.c ****   }
 1384              		.loc 1 594 32 is_stmt 0 view .LVU290
 1385 0020 7F22     		movs	r2, #127
 1386 0022 1140     		ands	r1, r2
 1387              	.LVL146:
 594:Src/usbd_conf.c ****   }
 1388              		.loc 1 594 39 view .LVU291
 1389 0024 CA00     		lsls	r2, r1, #3
 1390 0026 511A     		subs	r1, r2, r1
 1391 0028 8A00     		lsls	r2, r1, #2
 1392 002a 9B18     		adds	r3, r3, r2
 1393              	.LVL147:
 594:Src/usbd_conf.c ****   }
 1394              		.loc 1 594 39 view .LVU292
 1395 002c 2A33     		adds	r3, r3, #42
ARM GAS  /tmp/cc0XYibz.s 			page 43


 1396 002e 1878     		ldrb	r0, [r3]
 1397              	.LVL148:
 594:Src/usbd_conf.c ****   }
 1398              		.loc 1 594 39 view .LVU293
 1399 0030 F5E7     		b	.L69
 1400              		.cfi_endproc
 1401              	.LFE59:
 1403              		.section	.text.USBD_LL_SetUSBAddress,"ax",%progbits
 1404              		.align	1
 1405              		.global	USBD_LL_SetUSBAddress
 1406              		.syntax unified
 1407              		.code	16
 1408              		.thumb_func
 1409              		.fpu softvfp
 1411              	USBD_LL_SetUSBAddress:
 1412              	.LVL149:
 1413              	.LFB60:
 609:Src/usbd_conf.c ****   HAL_StatusTypeDef hal_status = HAL_OK;
 1414              		.loc 1 609 1 is_stmt 1 view -0
 1415              		.cfi_startproc
 1416              		@ args = 0, pretend = 0, frame = 0
 1417              		@ frame_needed = 0, uses_anonymous_args = 0
 609:Src/usbd_conf.c ****   HAL_StatusTypeDef hal_status = HAL_OK;
 1418              		.loc 1 609 1 is_stmt 0 view .LVU295
 1419 0000 10B5     		push	{r4, lr}
 1420              	.LCFI24:
 1421              		.cfi_def_cfa_offset 8
 1422              		.cfi_offset 4, -8
 1423              		.cfi_offset 14, -4
 610:Src/usbd_conf.c ****   USBD_StatusTypeDef usb_status = USBD_OK;
 1424              		.loc 1 610 3 is_stmt 1 view .LVU296
 1425              	.LVL150:
 611:Src/usbd_conf.c ****   
 1426              		.loc 1 611 3 view .LVU297
 613:Src/usbd_conf.c ****      
 1427              		.loc 1 613 3 view .LVU298
 613:Src/usbd_conf.c ****      
 1428              		.loc 1 613 39 is_stmt 0 view .LVU299
 1429 0002 8823     		movs	r3, #136
 1430 0004 9B00     		lsls	r3, r3, #2
 1431 0006 C058     		ldr	r0, [r0, r3]
 1432              	.LVL151:
 613:Src/usbd_conf.c ****      
 1433              		.loc 1 613 16 view .LVU300
 1434 0008 FFF7FEFF 		bl	HAL_PCD_SetAddress
 1435              	.LVL152:
 615:Src/usbd_conf.c ****     case HAL_OK :
 1436              		.loc 1 615 3 is_stmt 1 view .LVU301
 1437 000c 0128     		cmp	r0, #1
 1438 000e 06D0     		beq	.L73
 1439 0010 43B2     		sxtb	r3, r0
 1440 0012 002B     		cmp	r3, #0
 1441 0014 02D0     		beq	.L72
 1442 0016 0228     		cmp	r0, #2
 1443 0018 03D0     		beq	.L74
 626:Src/usbd_conf.c ****     break;
 1444              		.loc 1 626 18 is_stmt 0 view .LVU302
ARM GAS  /tmp/cc0XYibz.s 			page 44


 1445 001a 0220     		movs	r0, #2
 1446              	.LVL153:
 1447              	.L72:
 632:Src/usbd_conf.c **** }
 1448              		.loc 1 632 3 is_stmt 1 view .LVU303
 633:Src/usbd_conf.c **** 
 1449              		.loc 1 633 1 is_stmt 0 view .LVU304
 1450              		@ sp needed
 1451 001c 10BD     		pop	{r4, pc}
 1452              	.LVL154:
 1453              	.L73:
 620:Src/usbd_conf.c ****     break;
 1454              		.loc 1 620 18 view .LVU305
 1455 001e 0220     		movs	r0, #2
 1456              	.LVL155:
 620:Src/usbd_conf.c ****     break;
 1457              		.loc 1 620 18 view .LVU306
 1458 0020 FCE7     		b	.L72
 1459              	.LVL156:
 1460              	.L74:
 623:Src/usbd_conf.c ****     break;
 1461              		.loc 1 623 18 view .LVU307
 1462 0022 0120     		movs	r0, #1
 1463              	.LVL157:
 623:Src/usbd_conf.c ****     break;
 1464              		.loc 1 623 18 view .LVU308
 1465 0024 FAE7     		b	.L72
 1466              		.cfi_endproc
 1467              	.LFE60:
 1469              		.section	.text.USBD_LL_Transmit,"ax",%progbits
 1470              		.align	1
 1471              		.global	USBD_LL_Transmit
 1472              		.syntax unified
 1473              		.code	16
 1474              		.thumb_func
 1475              		.fpu softvfp
 1477              	USBD_LL_Transmit:
 1478              	.LVL158:
 1479              	.LFB61:
 644:Src/usbd_conf.c ****   HAL_StatusTypeDef hal_status = HAL_OK;
 1480              		.loc 1 644 1 is_stmt 1 view -0
 1481              		.cfi_startproc
 1482              		@ args = 0, pretend = 0, frame = 0
 1483              		@ frame_needed = 0, uses_anonymous_args = 0
 644:Src/usbd_conf.c ****   HAL_StatusTypeDef hal_status = HAL_OK;
 1484              		.loc 1 644 1 is_stmt 0 view .LVU310
 1485 0000 10B5     		push	{r4, lr}
 1486              	.LCFI25:
 1487              		.cfi_def_cfa_offset 8
 1488              		.cfi_offset 4, -8
 1489              		.cfi_offset 14, -4
 645:Src/usbd_conf.c ****   USBD_StatusTypeDef usb_status = USBD_OK;
 1490              		.loc 1 645 3 is_stmt 1 view .LVU311
 1491              	.LVL159:
 646:Src/usbd_conf.c **** 
 1492              		.loc 1 646 3 view .LVU312
 648:Src/usbd_conf.c ****      
ARM GAS  /tmp/cc0XYibz.s 			page 45


 1493              		.loc 1 648 3 view .LVU313
 648:Src/usbd_conf.c ****      
 1494              		.loc 1 648 40 is_stmt 0 view .LVU314
 1495 0002 8824     		movs	r4, #136
 1496 0004 A400     		lsls	r4, r4, #2
 1497 0006 0059     		ldr	r0, [r0, r4]
 1498              	.LVL160:
 648:Src/usbd_conf.c ****      
 1499              		.loc 1 648 16 view .LVU315
 1500 0008 FFF7FEFF 		bl	HAL_PCD_EP_Transmit
 1501              	.LVL161:
 650:Src/usbd_conf.c ****     case HAL_OK :
 1502              		.loc 1 650 3 is_stmt 1 view .LVU316
 1503 000c 0128     		cmp	r0, #1
 1504 000e 06D0     		beq	.L77
 1505 0010 43B2     		sxtb	r3, r0
 1506 0012 002B     		cmp	r3, #0
 1507 0014 02D0     		beq	.L76
 1508 0016 0228     		cmp	r0, #2
 1509 0018 03D0     		beq	.L78
 661:Src/usbd_conf.c ****     break;
 1510              		.loc 1 661 18 is_stmt 0 view .LVU317
 1511 001a 0220     		movs	r0, #2
 1512              	.LVL162:
 1513              	.L76:
 667:Src/usbd_conf.c **** }
 1514              		.loc 1 667 3 is_stmt 1 view .LVU318
 668:Src/usbd_conf.c **** 
 1515              		.loc 1 668 1 is_stmt 0 view .LVU319
 1516              		@ sp needed
 1517 001c 10BD     		pop	{r4, pc}
 1518              	.LVL163:
 1519              	.L77:
 655:Src/usbd_conf.c ****     break;
 1520              		.loc 1 655 18 view .LVU320
 1521 001e 0220     		movs	r0, #2
 1522              	.LVL164:
 655:Src/usbd_conf.c ****     break;
 1523              		.loc 1 655 18 view .LVU321
 1524 0020 FCE7     		b	.L76
 1525              	.LVL165:
 1526              	.L78:
 658:Src/usbd_conf.c ****     break;
 1527              		.loc 1 658 18 view .LVU322
 1528 0022 0120     		movs	r0, #1
 1529              	.LVL166:
 658:Src/usbd_conf.c ****     break;
 1530              		.loc 1 658 18 view .LVU323
 1531 0024 FAE7     		b	.L76
 1532              		.cfi_endproc
 1533              	.LFE61:
 1535              		.section	.text.USBD_LL_PrepareReceive,"ax",%progbits
 1536              		.align	1
 1537              		.global	USBD_LL_PrepareReceive
 1538              		.syntax unified
 1539              		.code	16
 1540              		.thumb_func
ARM GAS  /tmp/cc0XYibz.s 			page 46


 1541              		.fpu softvfp
 1543              	USBD_LL_PrepareReceive:
 1544              	.LVL167:
 1545              	.LFB62:
 679:Src/usbd_conf.c ****   HAL_StatusTypeDef hal_status = HAL_OK;
 1546              		.loc 1 679 1 is_stmt 1 view -0
 1547              		.cfi_startproc
 1548              		@ args = 0, pretend = 0, frame = 0
 1549              		@ frame_needed = 0, uses_anonymous_args = 0
 679:Src/usbd_conf.c ****   HAL_StatusTypeDef hal_status = HAL_OK;
 1550              		.loc 1 679 1 is_stmt 0 view .LVU325
 1551 0000 10B5     		push	{r4, lr}
 1552              	.LCFI26:
 1553              		.cfi_def_cfa_offset 8
 1554              		.cfi_offset 4, -8
 1555              		.cfi_offset 14, -4
 680:Src/usbd_conf.c ****   USBD_StatusTypeDef usb_status = USBD_OK;
 1556              		.loc 1 680 3 is_stmt 1 view .LVU326
 1557              	.LVL168:
 681:Src/usbd_conf.c **** 
 1558              		.loc 1 681 3 view .LVU327
 683:Src/usbd_conf.c ****      
 1559              		.loc 1 683 3 view .LVU328
 683:Src/usbd_conf.c ****      
 1560              		.loc 1 683 39 is_stmt 0 view .LVU329
 1561 0002 8824     		movs	r4, #136
 1562 0004 A400     		lsls	r4, r4, #2
 1563 0006 0059     		ldr	r0, [r0, r4]
 1564              	.LVL169:
 683:Src/usbd_conf.c ****      
 1565              		.loc 1 683 16 view .LVU330
 1566 0008 FFF7FEFF 		bl	HAL_PCD_EP_Receive
 1567              	.LVL170:
 685:Src/usbd_conf.c ****     case HAL_OK :
 1568              		.loc 1 685 3 is_stmt 1 view .LVU331
 1569 000c 0128     		cmp	r0, #1
 1570 000e 06D0     		beq	.L81
 1571 0010 43B2     		sxtb	r3, r0
 1572 0012 002B     		cmp	r3, #0
 1573 0014 02D0     		beq	.L80
 1574 0016 0228     		cmp	r0, #2
 1575 0018 03D0     		beq	.L82
 696:Src/usbd_conf.c ****     break;
 1576              		.loc 1 696 18 is_stmt 0 view .LVU332
 1577 001a 0220     		movs	r0, #2
 1578              	.LVL171:
 1579              	.L80:
 702:Src/usbd_conf.c **** }
 1580              		.loc 1 702 3 is_stmt 1 view .LVU333
 703:Src/usbd_conf.c **** 
 1581              		.loc 1 703 1 is_stmt 0 view .LVU334
 1582              		@ sp needed
 1583 001c 10BD     		pop	{r4, pc}
 1584              	.LVL172:
 1585              	.L81:
 690:Src/usbd_conf.c ****     break;
 1586              		.loc 1 690 18 view .LVU335
ARM GAS  /tmp/cc0XYibz.s 			page 47


 1587 001e 0220     		movs	r0, #2
 1588              	.LVL173:
 690:Src/usbd_conf.c ****     break;
 1589              		.loc 1 690 18 view .LVU336
 1590 0020 FCE7     		b	.L80
 1591              	.LVL174:
 1592              	.L82:
 693:Src/usbd_conf.c ****     break;
 1593              		.loc 1 693 18 view .LVU337
 1594 0022 0120     		movs	r0, #1
 1595              	.LVL175:
 693:Src/usbd_conf.c ****     break;
 1596              		.loc 1 693 18 view .LVU338
 1597 0024 FAE7     		b	.L80
 1598              		.cfi_endproc
 1599              	.LFE62:
 1601              		.section	.text.USBD_LL_GetRxDataSize,"ax",%progbits
 1602              		.align	1
 1603              		.global	USBD_LL_GetRxDataSize
 1604              		.syntax unified
 1605              		.code	16
 1606              		.thumb_func
 1607              		.fpu softvfp
 1609              	USBD_LL_GetRxDataSize:
 1610              	.LVL176:
 1611              	.LFB63:
 712:Src/usbd_conf.c ****   return HAL_PCD_EP_GetRxCount((PCD_HandleTypeDef*) pdev->pData, ep_addr);
 1612              		.loc 1 712 1 is_stmt 1 view -0
 1613              		.cfi_startproc
 1614              		@ args = 0, pretend = 0, frame = 0
 1615              		@ frame_needed = 0, uses_anonymous_args = 0
 712:Src/usbd_conf.c ****   return HAL_PCD_EP_GetRxCount((PCD_HandleTypeDef*) pdev->pData, ep_addr);
 1616              		.loc 1 712 1 is_stmt 0 view .LVU340
 1617 0000 10B5     		push	{r4, lr}
 1618              	.LCFI27:
 1619              		.cfi_def_cfa_offset 8
 1620              		.cfi_offset 4, -8
 1621              		.cfi_offset 14, -4
 713:Src/usbd_conf.c **** }
 1622              		.loc 1 713 3 is_stmt 1 view .LVU341
 713:Src/usbd_conf.c **** }
 1623              		.loc 1 713 57 is_stmt 0 view .LVU342
 1624 0002 8823     		movs	r3, #136
 1625 0004 9B00     		lsls	r3, r3, #2
 1626 0006 C058     		ldr	r0, [r0, r3]
 1627              	.LVL177:
 713:Src/usbd_conf.c **** }
 1628              		.loc 1 713 10 view .LVU343
 1629 0008 FFF7FEFF 		bl	HAL_PCD_EP_GetRxCount
 1630              	.LVL178:
 714:Src/usbd_conf.c **** 
 1631              		.loc 1 714 1 view .LVU344
 1632              		@ sp needed
 1633 000c 10BD     		pop	{r4, pc}
 1634              		.cfi_endproc
 1635              	.LFE63:
 1637              		.section	.text.USBD_LL_Delay,"ax",%progbits
ARM GAS  /tmp/cc0XYibz.s 			page 48


 1638              		.align	1
 1639              		.global	USBD_LL_Delay
 1640              		.syntax unified
 1641              		.code	16
 1642              		.thumb_func
 1643              		.fpu softvfp
 1645              	USBD_LL_Delay:
 1646              	.LVL179:
 1647              	.LFB64:
 722:Src/usbd_conf.c ****   HAL_Delay(Delay);
 1648              		.loc 1 722 1 is_stmt 1 view -0
 1649              		.cfi_startproc
 1650              		@ args = 0, pretend = 0, frame = 0
 1651              		@ frame_needed = 0, uses_anonymous_args = 0
 722:Src/usbd_conf.c ****   HAL_Delay(Delay);
 1652              		.loc 1 722 1 is_stmt 0 view .LVU346
 1653 0000 10B5     		push	{r4, lr}
 1654              	.LCFI28:
 1655              		.cfi_def_cfa_offset 8
 1656              		.cfi_offset 4, -8
 1657              		.cfi_offset 14, -4
 723:Src/usbd_conf.c **** }
 1658              		.loc 1 723 3 is_stmt 1 view .LVU347
 1659 0002 FFF7FEFF 		bl	HAL_Delay
 1660              	.LVL180:
 724:Src/usbd_conf.c **** 
 1661              		.loc 1 724 1 is_stmt 0 view .LVU348
 1662              		@ sp needed
 1663 0006 10BD     		pop	{r4, pc}
 1664              		.cfi_endproc
 1665              	.LFE64:
 1667              		.section	.text.USBD_static_malloc,"ax",%progbits
 1668              		.align	1
 1669              		.global	USBD_static_malloc
 1670              		.syntax unified
 1671              		.code	16
 1672              		.thumb_func
 1673              		.fpu softvfp
 1675              	USBD_static_malloc:
 1676              	.LVL181:
 1677              	.LFB65:
 732:Src/usbd_conf.c ****   static uint32_t mem[(sizeof(USBD_CDC_HandleTypeDef)/4)+1];/* On 32-bit boundary */
 1678              		.loc 1 732 1 is_stmt 1 view -0
 1679              		.cfi_startproc
 1680              		@ args = 0, pretend = 0, frame = 0
 1681              		@ frame_needed = 0, uses_anonymous_args = 0
 1682              		@ link register save eliminated.
 733:Src/usbd_conf.c ****   return mem;
 1683              		.loc 1 733 3 view .LVU350
 734:Src/usbd_conf.c **** }
 1684              		.loc 1 734 3 view .LVU351
 735:Src/usbd_conf.c **** 
 1685              		.loc 1 735 1 is_stmt 0 view .LVU352
 1686 0000 0048     		ldr	r0, .L86
 1687              	.LVL182:
 735:Src/usbd_conf.c **** 
 1688              		.loc 1 735 1 view .LVU353
ARM GAS  /tmp/cc0XYibz.s 			page 49


 1689              		@ sp needed
 1690 0002 7047     		bx	lr
 1691              	.L87:
 1692              		.align	2
 1693              	.L86:
 1694 0004 00000000 		.word	mem.8427
 1695              		.cfi_endproc
 1696              	.LFE65:
 1698              		.section	.text.USBD_static_free,"ax",%progbits
 1699              		.align	1
 1700              		.global	USBD_static_free
 1701              		.syntax unified
 1702              		.code	16
 1703              		.thumb_func
 1704              		.fpu softvfp
 1706              	USBD_static_free:
 1707              	.LVL183:
 1708              	.LFB66:
 743:Src/usbd_conf.c **** 
 1709              		.loc 1 743 1 is_stmt 1 view -0
 1710              		.cfi_startproc
 1711              		@ args = 0, pretend = 0, frame = 0
 1712              		@ frame_needed = 0, uses_anonymous_args = 0
 1713              		@ link register save eliminated.
 745:Src/usbd_conf.c **** 
 1714              		.loc 1 745 1 view .LVU355
 1715              		@ sp needed
 1716 0000 7047     		bx	lr
 1717              		.cfi_endproc
 1718              	.LFE66:
 1720              		.section	.text.HAL_PCDEx_SetConnectionState,"ax",%progbits
 1721              		.align	1
 1722              		.global	HAL_PCDEx_SetConnectionState
 1723              		.syntax unified
 1724              		.code	16
 1725              		.thumb_func
 1726              		.fpu softvfp
 1728              	HAL_PCDEx_SetConnectionState:
 1729              	.LVL184:
 1730              	.LFB68:
 757:Src/usbd_conf.c **** /* USER CODE END 5 */
 758:Src/usbd_conf.c **** 
 759:Src/usbd_conf.c **** /**
 760:Src/usbd_conf.c ****   * @brief Software device connection
 761:Src/usbd_conf.c ****   * @param hpcd: PCD handle
 762:Src/usbd_conf.c ****   * @param state: Connection state (0: disconnected / 1: connected)
 763:Src/usbd_conf.c ****   * @retval None
 764:Src/usbd_conf.c ****   */
 765:Src/usbd_conf.c **** void HAL_PCDEx_SetConnectionState(PCD_HandleTypeDef *hpcd, uint8_t state)
 766:Src/usbd_conf.c **** {
 1731              		.loc 1 766 1 view -0
 1732              		.cfi_startproc
 1733              		@ args = 0, pretend = 0, frame = 0
 1734              		@ frame_needed = 0, uses_anonymous_args = 0
 1735              		@ link register save eliminated.
 767:Src/usbd_conf.c ****   /* USER CODE BEGIN 6 */
 768:Src/usbd_conf.c ****   if (state == 1)
ARM GAS  /tmp/cc0XYibz.s 			page 50


 1736              		.loc 1 768 3 view .LVU357
 769:Src/usbd_conf.c ****   {
 770:Src/usbd_conf.c ****     /* Configure Low connection state. */
 771:Src/usbd_conf.c **** 
 772:Src/usbd_conf.c ****   }
 773:Src/usbd_conf.c ****   else
 774:Src/usbd_conf.c ****   {
 775:Src/usbd_conf.c ****     /* Configure High connection state */
 776:Src/usbd_conf.c **** 
 777:Src/usbd_conf.c ****   }
 1737              		.loc 1 777 3 view .LVU358
 778:Src/usbd_conf.c ****   /* USER CODE END 6 */
 779:Src/usbd_conf.c **** }
 1738              		.loc 1 779 1 is_stmt 0 view .LVU359
 1739              		@ sp needed
 1740 0000 7047     		bx	lr
 1741              		.cfi_endproc
 1742              	.LFE68:
 1744              		.comm	hpcd_USB_FS,544,4
 1745              		.section	.bss.mem.8427,"aw",%nobits
 1746              		.align	2
 1749              	mem.8427:
 1750 0000 00000000 		.space	544
 1750      00000000 
 1750      00000000 
 1750      00000000 
 1750      00000000 
 1751              		.text
 1752              	.Letext0:
 1753              		.file 2 "/usr/arm-none-eabi/include/machine/_default_types.h"
 1754              		.file 3 "/usr/arm-none-eabi/include/sys/_stdint.h"
 1755              		.file 4 "Drivers/CMSIS/Include/core_cm0.h"
 1756              		.file 5 "Drivers/CMSIS/Device/ST/STM32F0xx/Include/system_stm32f0xx.h"
 1757              		.file 6 "Drivers/CMSIS/Device/ST/STM32F0xx/Include/stm32f072xb.h"
 1758              		.file 7 "Drivers/CMSIS/Device/ST/STM32F0xx/Include/stm32f0xx.h"
 1759              		.file 8 "/usr/arm-none-eabi/include/sys/lock.h"
 1760              		.file 9 "/usr/arm-none-eabi/include/sys/_types.h"
 1761              		.file 10 "/usr/lib/gcc/arm-none-eabi/8.3.0/include/stddef.h"
 1762              		.file 11 "/usr/arm-none-eabi/include/sys/reent.h"
 1763              		.file 12 "Drivers/STM32F0xx_HAL_Driver/Inc/stm32f0xx_hal_def.h"
 1764              		.file 13 "Drivers/STM32F0xx_HAL_Driver/Inc/stm32f0xx_hal_pcd.h"
 1765              		.file 14 "/usr/arm-none-eabi/include/stdlib.h"
 1766              		.file 15 "Middlewares/ST/STM32_USB_Device_Library/Core/Inc/usbd_def.h"
 1767              		.file 16 "Middlewares/ST/STM32_USB_Device_Library/Class/CDC/Inc/usbd_cdc.h"
 1768              		.file 17 "Drivers/STM32F0xx_HAL_Driver/Inc/stm32f0xx_hal.h"
 1769              		.file 18 "Drivers/STM32F0xx_HAL_Driver/Inc/stm32f0xx_hal_pcd_ex.h"
 1770              		.file 19 "Middlewares/ST/STM32_USB_Device_Library/Core/Inc/usbd_core.h"
 1771              		.file 20 "Drivers/STM32F0xx_HAL_Driver/Inc/stm32f0xx_hal_cortex.h"
ARM GAS  /tmp/cc0XYibz.s 			page 51

